
DigitalDeskClock_v2.elf:     file format elf32-avr

Sections:
Idx Name          Size      VMA       LMA       File off  Algn
  0 .data         000000a2  00800100  000022c2  00002356  2**0
                  CONTENTS, ALLOC, LOAD, DATA
  1 .text         000022c2  00000000  00000000  00000094  2**1
                  CONTENTS, ALLOC, LOAD, READONLY, CODE
  2 .bss          00000075  008001a2  008001a2  000023f8  2**0
                  ALLOC
  3 .comment      0000005c  00000000  00000000  000023f8  2**0
                  CONTENTS, READONLY
  4 .note.gnu.avr.deviceinfo 00000040  00000000  00000000  00002454  2**2
                  CONTENTS, READONLY
  5 .debug_info   000005f4  00000000  00000000  00002494  2**0
                  CONTENTS, READONLY, DEBUGGING
  6 .debug_abbrev 000005a2  00000000  00000000  00002a88  2**0
                  CONTENTS, READONLY, DEBUGGING
  7 .debug_line   00000133  00000000  00000000  0000302a  2**0
                  CONTENTS, READONLY, DEBUGGING
  8 .debug_str    00000208  00000000  00000000  0000315d  2**0
                  CONTENTS, READONLY, DEBUGGING

Disassembly of section .text:

00000000 <__vectors>:
       0:	0c 94 52 01 	jmp	0x2a4	; 0x2a4 <__ctors_end>
       4:	0c 94 7a 01 	jmp	0x2f4	; 0x2f4 <__bad_interrupt>
       8:	0c 94 7a 01 	jmp	0x2f4	; 0x2f4 <__bad_interrupt>
       c:	0c 94 7a 01 	jmp	0x2f4	; 0x2f4 <__bad_interrupt>
      10:	0c 94 7a 01 	jmp	0x2f4	; 0x2f4 <__bad_interrupt>
      14:	0c 94 7a 01 	jmp	0x2f4	; 0x2f4 <__bad_interrupt>
      18:	0c 94 7a 01 	jmp	0x2f4	; 0x2f4 <__bad_interrupt>
      1c:	0c 94 7a 01 	jmp	0x2f4	; 0x2f4 <__bad_interrupt>
      20:	0c 94 7a 01 	jmp	0x2f4	; 0x2f4 <__bad_interrupt>
      24:	0c 94 7a 01 	jmp	0x2f4	; 0x2f4 <__bad_interrupt>
      28:	0c 94 7a 01 	jmp	0x2f4	; 0x2f4 <__bad_interrupt>
      2c:	0c 94 7a 01 	jmp	0x2f4	; 0x2f4 <__bad_interrupt>
      30:	0c 94 7a 01 	jmp	0x2f4	; 0x2f4 <__bad_interrupt>
      34:	0c 94 7a 01 	jmp	0x2f4	; 0x2f4 <__bad_interrupt>
      38:	0c 94 25 06 	jmp	0xc4a	; 0xc4a <__vector_14>
      3c:	0c 94 7a 01 	jmp	0x2f4	; 0x2f4 <__bad_interrupt>
      40:	0c 94 7a 01 	jmp	0x2f4	; 0x2f4 <__bad_interrupt>
      44:	0c 94 7a 01 	jmp	0x2f4	; 0x2f4 <__bad_interrupt>
      48:	0c 94 7a 01 	jmp	0x2f4	; 0x2f4 <__bad_interrupt>
      4c:	0c 94 7a 01 	jmp	0x2f4	; 0x2f4 <__bad_interrupt>
      50:	0c 94 7a 01 	jmp	0x2f4	; 0x2f4 <__bad_interrupt>
      54:	0c 94 7a 01 	jmp	0x2f4	; 0x2f4 <__bad_interrupt>
      58:	0c 94 7a 01 	jmp	0x2f4	; 0x2f4 <__bad_interrupt>
      5c:	0c 94 7a 01 	jmp	0x2f4	; 0x2f4 <__bad_interrupt>
      60:	0c 94 7a 01 	jmp	0x2f4	; 0x2f4 <__bad_interrupt>
      64:	0c 94 7a 01 	jmp	0x2f4	; 0x2f4 <__bad_interrupt>
      68:	81 0c       	add	r8, r1
      6a:	88 0c       	add	r8, r8
      6c:	8f 0c       	add	r8, r15
      6e:	96 0c       	add	r9, r6
      70:	9d 0c       	add	r9, r13
      72:	aa 0c       	add	r10, r10
      74:	b7 0c       	add	r11, r7
      76:	c4 0c       	add	r12, r4

00000078 <__trampolines_end>:
      78:	00 00       	nop
      7a:	00 00       	nop
      7c:	00 01       	movw	r0, r0
      7e:	5f 00       	.word	0x005f	; ????
      80:	00 00       	nop
      82:	00 01       	movw	r0, r0
      84:	07 00       	.word	0x0007	; ????
      86:	07 00       	.word	0x0007	; ????
      88:	00 03       	mulsu	r16, r16
      8a:	14 7f       	andi	r17, 0xF4	; 244
      8c:	14 7f       	andi	r17, 0xF4	; 244
      8e:	14 05       	cpc	r17, r4
      90:	24 2a       	or	r2, r20
      92:	7f 2a       	or	r7, r31
      94:	12 05       	cpc	r17, r2
      96:	23 13       	cpse	r18, r19
      98:	08 64       	ori	r16, 0x48	; 72
      9a:	62 05       	cpc	r22, r2
      9c:	36 49       	sbci	r19, 0x96	; 150
      9e:	55 22       	and	r5, r21
      a0:	50 05       	cpc	r21, r0
      a2:	07 00       	.word	0x0007	; ????
      a4:	00 00       	nop
      a6:	00 01       	movw	r0, r0
      a8:	1c 22       	and	r1, r28
      aa:	41 00       	.word	0x0041	; ????
      ac:	00 03       	mulsu	r16, r16
      ae:	41 22       	and	r4, r17
      b0:	1c 00       	.word	0x001c	; ????
      b2:	00 03       	mulsu	r16, r16
      b4:	14 08       	sbc	r1, r4
      b6:	3e 08       	sbc	r3, r14
      b8:	14 05       	cpc	r17, r4
      ba:	08 08       	sbc	r0, r8
      bc:	3e 08       	sbc	r3, r14
      be:	08 05       	cpc	r16, r8
      c0:	a0 60       	ori	r26, 0x00	; 0
      c2:	00 00       	nop
      c4:	00 02       	muls	r16, r16
      c6:	08 08       	sbc	r0, r8
      c8:	08 08       	sbc	r0, r8
      ca:	08 05       	cpc	r16, r8
      cc:	40 00       	.word	0x0040	; ????
      ce:	00 00       	nop
      d0:	00 01       	movw	r0, r0
      d2:	20 10       	cpse	r2, r0
      d4:	08 04       	cpc	r0, r8
      d6:	02 05       	cpc	r16, r2
      d8:	3e 51       	subi	r19, 0x1E	; 30
      da:	49 45       	sbci	r20, 0x59	; 89
      dc:	3e 05       	cpc	r19, r14
      de:	42 7f       	andi	r20, 0xF2	; 242
      e0:	40 00       	.word	0x0040	; ????
      e2:	00 03       	mulsu	r16, r16
      e4:	42 61       	ori	r20, 0x12	; 18
      e6:	51 49       	sbci	r21, 0x91	; 145
      e8:	46 05       	cpc	r20, r6
      ea:	22 41       	sbci	r18, 0x12	; 18
      ec:	49 49       	sbci	r20, 0x99	; 153
      ee:	36 05       	cpc	r19, r6
      f0:	18 14       	cp	r1, r8
      f2:	12 7f       	andi	r17, 0xF2	; 242
      f4:	10 05       	cpc	r17, r0
      f6:	27 45       	sbci	r18, 0x57	; 87
      f8:	45 45       	sbci	r20, 0x55	; 85
      fa:	39 05       	cpc	r19, r9
      fc:	3c 4a       	sbci	r19, 0xAC	; 172
      fe:	49 49       	sbci	r20, 0x99	; 153
     100:	30 05       	cpc	r19, r0
     102:	01 71       	andi	r16, 0x11	; 17
     104:	09 05       	cpc	r16, r9
     106:	03 05       	cpc	r16, r3
     108:	36 49       	sbci	r19, 0x96	; 150
     10a:	49 49       	sbci	r20, 0x99	; 153
     10c:	36 05       	cpc	r19, r6
     10e:	06 49       	sbci	r16, 0x96	; 150
     110:	49 49       	sbci	r20, 0x99	; 153
     112:	3e 05       	cpc	r19, r14
     114:	24 00       	.word	0x0024	; ????
     116:	00 00       	nop
     118:	00 01       	movw	r0, r0
     11a:	56 36       	cpi	r21, 0x66	; 102
     11c:	00 00       	nop
     11e:	00 02       	muls	r16, r16
     120:	08 14       	cp	r0, r8
     122:	22 41       	sbci	r18, 0x12	; 18
     124:	00 04       	cpc	r0, r0
     126:	12 12       	cpse	r1, r18
     128:	12 12       	cpse	r1, r18
     12a:	12 05       	cpc	r17, r2
     12c:	41 22       	and	r4, r17
     12e:	14 08       	sbc	r1, r4
     130:	00 04       	cpc	r0, r0
     132:	06 01       	movw	r0, r12
     134:	51 09       	sbc	r21, r1
     136:	06 05       	cpc	r16, r6
     138:	3e 41       	sbci	r19, 0x1E	; 30
     13a:	5d 55       	subi	r21, 0x5D	; 93
     13c:	1e 05       	cpc	r17, r14
     13e:	7c 0a       	sbc	r7, r28
     140:	09 0a       	sbc	r0, r25
     142:	7c 05       	cpc	r23, r12
     144:	7f 49       	sbci	r23, 0x9F	; 159
     146:	49 49       	sbci	r20, 0x99	; 153
     148:	36 05       	cpc	r19, r6
     14a:	3e 41       	sbci	r19, 0x1E	; 30
     14c:	41 41       	sbci	r20, 0x11	; 17
     14e:	22 05       	cpc	r18, r2
     150:	7f 41       	sbci	r23, 0x1F	; 31
     152:	41 22       	and	r4, r17
     154:	1c 05       	cpc	r17, r12
     156:	7f 49       	sbci	r23, 0x9F	; 159
     158:	49 49       	sbci	r20, 0x99	; 153
     15a:	41 05       	cpc	r20, r1
     15c:	7f 09       	sbc	r23, r15
     15e:	09 09       	sbc	r16, r9
     160:	01 05       	cpc	r16, r1
     162:	3e 41       	sbci	r19, 0x1E	; 30
     164:	41 51       	subi	r20, 0x11	; 17
     166:	32 05       	cpc	r19, r2
     168:	7f 08       	sbc	r7, r15
     16a:	08 08       	sbc	r0, r8
     16c:	7f 05       	cpc	r23, r15
     16e:	41 7f       	andi	r20, 0xF1	; 241
     170:	41 00       	.word	0x0041	; ????
     172:	00 03       	mulsu	r16, r16
     174:	20 41       	sbci	r18, 0x10	; 16
     176:	3f 00       	.word	0x003f	; ????
     178:	00 03       	mulsu	r16, r16
     17a:	7f 08       	sbc	r7, r15
     17c:	14 22       	and	r1, r20
     17e:	41 05       	cpc	r20, r1
     180:	7f 40       	sbci	r23, 0x0F	; 15
     182:	40 40       	sbci	r20, 0x00	; 0
     184:	00 04       	cpc	r0, r0
     186:	7f 02       	muls	r23, r31
     188:	04 02       	muls	r16, r20
     18a:	7f 05       	cpc	r23, r15
     18c:	7f 02       	muls	r23, r31
     18e:	04 08       	sbc	r0, r4
     190:	7f 05       	cpc	r23, r15
     192:	3e 41       	sbci	r19, 0x1E	; 30
     194:	41 41       	sbci	r20, 0x11	; 17
     196:	3e 05       	cpc	r19, r14
     198:	7f 09       	sbc	r23, r15
     19a:	09 09       	sbc	r16, r9
     19c:	06 05       	cpc	r16, r6
     19e:	3e 41       	sbci	r19, 0x1E	; 30
     1a0:	51 21       	and	r21, r1
     1a2:	5e 05       	cpc	r21, r14
     1a4:	7f 09       	sbc	r23, r15
     1a6:	19 29       	or	r17, r9
     1a8:	46 05       	cpc	r20, r6
     1aa:	46 49       	sbci	r20, 0x96	; 150
     1ac:	49 49       	sbci	r20, 0x99	; 153
     1ae:	31 05       	cpc	r19, r1
     1b0:	01 01       	movw	r0, r2
     1b2:	7f 01       	movw	r14, r30
     1b4:	01 05       	cpc	r16, r1
     1b6:	3f 40       	sbci	r19, 0x0F	; 15
     1b8:	40 40       	sbci	r20, 0x00	; 0
     1ba:	3f 05       	cpc	r19, r15
     1bc:	1f 20       	and	r1, r15
     1be:	40 20       	and	r4, r0
     1c0:	1f 05       	cpc	r17, r15
     1c2:	3f 40       	sbci	r19, 0x0F	; 15
     1c4:	30 40       	sbci	r19, 0x00	; 0
     1c6:	3f 05       	cpc	r19, r15
     1c8:	63 14       	cp	r6, r3
     1ca:	08 14       	cp	r0, r8
     1cc:	63 05       	cpc	r22, r3
     1ce:	03 04       	cpc	r0, r3
     1d0:	78 04       	cpc	r7, r8
     1d2:	03 05       	cpc	r16, r3
     1d4:	61 51       	subi	r22, 0x11	; 17
     1d6:	49 45       	sbci	r20, 0x59	; 89
     1d8:	43 05       	cpc	r20, r3
     1da:	7f 41       	sbci	r23, 0x1F	; 31
     1dc:	00 00       	nop
     1de:	00 02       	muls	r16, r16
     1e0:	03 46       	sbci	r16, 0x63	; 99
     1e2:	18 60       	ori	r17, 0x08	; 8
     1e4:	00 04       	cpc	r0, r0
     1e6:	41 7f       	andi	r20, 0xF1	; 241
     1e8:	00 00       	nop
     1ea:	00 02       	muls	r16, r16
     1ec:	06 01       	movw	r0, r12
     1ee:	06 00       	.word	0x0006	; ????
     1f0:	00 03       	mulsu	r16, r16
     1f2:	40 40       	sbci	r20, 0x00	; 0
     1f4:	40 40       	sbci	r20, 0x00	; 0
     1f6:	40 05       	cpc	r20, r0
     1f8:	01 02       	muls	r16, r17
     1fa:	04 00       	.word	0x0004	; ????
     1fc:	00 03       	mulsu	r16, r16
     1fe:	20 54       	subi	r18, 0x40	; 64
     200:	54 78       	andi	r21, 0x84	; 132
     202:	00 04       	cpc	r0, r0
     204:	7f 48       	sbci	r23, 0x8F	; 143
     206:	48 30       	cpi	r20, 0x08	; 8
     208:	00 04       	cpc	r0, r0
     20a:	38 44       	sbci	r19, 0x48	; 72
     20c:	44 44       	sbci	r20, 0x44	; 68
     20e:	00 04       	cpc	r0, r0
     210:	30 48       	sbci	r19, 0x80	; 128
     212:	48 7f       	andi	r20, 0xF8	; 248
     214:	00 04       	cpc	r0, r0
     216:	38 54       	subi	r19, 0x48	; 72
     218:	54 58       	subi	r21, 0x84	; 132
     21a:	00 04       	cpc	r0, r0
     21c:	08 7e       	andi	r16, 0xE8	; 232
     21e:	09 09       	sbc	r16, r9
     220:	00 04       	cpc	r0, r0
     222:	0c 52       	subi	r16, 0x2C	; 44
     224:	52 52       	subi	r21, 0x22	; 34
     226:	3e 05       	cpc	r19, r14
     228:	7f 08       	sbc	r7, r15
     22a:	04 04       	cpc	r0, r4
     22c:	78 05       	cpc	r23, r8
     22e:	44 7d       	andi	r20, 0xD4	; 212
     230:	40 00       	.word	0x0040	; ????
     232:	00 03       	mulsu	r16, r16
     234:	44 44       	sbci	r20, 0x44	; 68
     236:	3d 00       	.word	0x003d	; ????
     238:	00 03       	mulsu	r16, r16
     23a:	7f 10       	cpse	r7, r15
     23c:	28 44       	sbci	r18, 0x48	; 72
     23e:	00 04       	cpc	r0, r0
     240:	41 7f       	andi	r20, 0xF1	; 241
     242:	40 00       	.word	0x0040	; ????
     244:	00 03       	mulsu	r16, r16
     246:	7e 02       	muls	r23, r30
     248:	7c 02       	muls	r23, r28
     24a:	7c 05       	cpc	r23, r12
     24c:	7c 08       	sbc	r7, r12
     24e:	04 78       	andi	r16, 0x84	; 132
     250:	00 04       	cpc	r0, r0
     252:	38 44       	sbci	r19, 0x48	; 72
     254:	44 44       	sbci	r20, 0x44	; 68
     256:	38 05       	cpc	r19, r8
     258:	7e 12       	cpse	r7, r30
     25a:	12 0c       	add	r1, r2
     25c:	00 04       	cpc	r0, r0
     25e:	0c 12       	cpse	r0, r28
     260:	12 0a       	sbc	r1, r18
     262:	7e 05       	cpc	r23, r14
     264:	7c 04       	cpc	r7, r12
     266:	04 08       	sbc	r0, r4
     268:	00 04       	cpc	r0, r0
     26a:	48 54       	subi	r20, 0x48	; 72
     26c:	54 24       	eor	r5, r4
     26e:	00 04       	cpc	r0, r0
     270:	04 3f       	cpi	r16, 0xF4	; 244
     272:	44 44       	sbci	r20, 0x44	; 68
     274:	00 04       	cpc	r0, r0
     276:	3c 40       	sbci	r19, 0x0C	; 12
     278:	40 7c       	andi	r20, 0xC0	; 192
     27a:	00 04       	cpc	r0, r0
     27c:	1c 20       	and	r1, r12
     27e:	40 20       	and	r4, r0
     280:	1c 05       	cpc	r17, r12
     282:	3c 40       	sbci	r19, 0x0C	; 12
     284:	78 40       	sbci	r23, 0x08	; 8
     286:	3c 05       	cpc	r19, r12
     288:	44 28       	or	r4, r4
     28a:	10 28       	or	r1, r0
     28c:	44 05       	cpc	r20, r4
     28e:	0c 50       	subi	r16, 0x0C	; 12
     290:	50 3c       	cpi	r21, 0xC0	; 192
     292:	00 04       	cpc	r0, r0
     294:	62 52       	subi	r22, 0x22	; 34
     296:	4a 46       	sbci	r20, 0x6A	; 106
     298:	00 05       	cpc	r16, r0
     29a:	07 05       	cpc	r16, r7
     29c:	07 00       	.word	0x0007	; ????
     29e:	00 03       	mulsu	r16, r16

000002a0 <__ctors_start>:
     2a0:	88 09       	sbc	r24, r8
     2a2:	e6 0c       	add	r14, r6

000002a4 <__ctors_end>:
     2a4:	11 24       	eor	r1, r1
     2a6:	1f be       	out	0x3f, r1	; 63
     2a8:	cf ef       	ldi	r28, 0xFF	; 255
     2aa:	d8 e0       	ldi	r29, 0x08	; 8
     2ac:	de bf       	out	0x3e, r29	; 62
     2ae:	cd bf       	out	0x3d, r28	; 61

000002b0 <__do_copy_data>:
     2b0:	11 e0       	ldi	r17, 0x01	; 1
     2b2:	a0 e0       	ldi	r26, 0x00	; 0
     2b4:	b1 e0       	ldi	r27, 0x01	; 1
     2b6:	e2 ec       	ldi	r30, 0xC2	; 194
     2b8:	f2 e2       	ldi	r31, 0x22	; 34
     2ba:	02 c0       	rjmp	.+4      	; 0x2c0 <__do_copy_data+0x10>
     2bc:	05 90       	lpm	r0, Z+
     2be:	0d 92       	st	X+, r0
     2c0:	a2 3a       	cpi	r26, 0xA2	; 162
     2c2:	b1 07       	cpc	r27, r17
     2c4:	d9 f7       	brne	.-10     	; 0x2bc <__do_copy_data+0xc>

000002c6 <__do_clear_bss>:
     2c6:	22 e0       	ldi	r18, 0x02	; 2
     2c8:	a2 ea       	ldi	r26, 0xA2	; 162
     2ca:	b1 e0       	ldi	r27, 0x01	; 1
     2cc:	01 c0       	rjmp	.+2      	; 0x2d0 <.do_clear_bss_start>

000002ce <.do_clear_bss_loop>:
     2ce:	1d 92       	st	X+, r1

000002d0 <.do_clear_bss_start>:
     2d0:	a7 31       	cpi	r26, 0x17	; 23
     2d2:	b2 07       	cpc	r27, r18
     2d4:	e1 f7       	brne	.-8      	; 0x2ce <.do_clear_bss_loop>

000002d6 <__do_global_ctors>:
     2d6:	11 e0       	ldi	r17, 0x01	; 1
     2d8:	c2 e5       	ldi	r28, 0x52	; 82
     2da:	d1 e0       	ldi	r29, 0x01	; 1
     2dc:	04 c0       	rjmp	.+8      	; 0x2e6 <__do_global_ctors+0x10>
     2de:	21 97       	sbiw	r28, 0x01	; 1
     2e0:	fe 01       	movw	r30, r28
     2e2:	0e 94 61 0e 	call	0x1cc2	; 0x1cc2 <__tablejump2__>
     2e6:	c0 35       	cpi	r28, 0x50	; 80
     2e8:	d1 07       	cpc	r29, r17
     2ea:	c9 f7       	brne	.-14     	; 0x2de <__do_global_ctors+0x8>
     2ec:	0e 94 4a 06 	call	0xc94	; 0xc94 <main>
     2f0:	0c 94 5f 11 	jmp	0x22be	; 0x22be <_exit>

000002f4 <__bad_interrupt>:
     2f4:	0c 94 00 00 	jmp	0	; 0x0 <__vectors>

000002f8 <_ZN11ADC_TypeDef4InitEhhhhhhh>:
     2f8:	af 92       	push	r10
     2fa:	cf 92       	push	r12
     2fc:	df 92       	push	r13
     2fe:	ef 92       	push	r14
     300:	0f 93       	push	r16
     302:	1f 93       	push	r17
     304:	88 e0       	ldi	r24, 0x08	; 8
     306:	08 9f       	mul	r16, r24
     308:	80 01       	movw	r16, r0
     30a:	11 24       	eor	r1, r1
     30c:	8e 2d       	mov	r24, r14
     30e:	81 70       	andi	r24, 0x01	; 1
     310:	08 2b       	or	r16, r24
     312:	80 e2       	ldi	r24, 0x20	; 32
     314:	28 9f       	mul	r18, r24
     316:	90 01       	movw	r18, r0
     318:	11 24       	eor	r1, r1
     31a:	20 2b       	or	r18, r16
     31c:	8e 2d       	mov	r24, r14
     31e:	86 70       	andi	r24, 0x06	; 6
     320:	28 2b       	or	r18, r24
     322:	80 e4       	ldi	r24, 0x40	; 64
     324:	48 9f       	mul	r20, r24
     326:	a0 01       	movw	r20, r0
     328:	11 24       	eor	r1, r1
     32a:	24 2b       	or	r18, r20
     32c:	80 e8       	ldi	r24, 0x80	; 128
     32e:	68 9f       	mul	r22, r24
     330:	b0 01       	movw	r22, r0
     332:	11 24       	eor	r1, r1
     334:	62 2b       	or	r22, r18
     336:	60 93 7a 00 	sts	0x007A, r22	; 0x80007a <__DATA_REGION_ORIGIN__+0x1a>
     33a:	80 e4       	ldi	r24, 0x40	; 64
     33c:	c8 9e       	mul	r12, r24
     33e:	60 01       	movw	r12, r0
     340:	11 24       	eor	r1, r1
     342:	8a 2d       	mov	r24, r10
     344:	87 70       	andi	r24, 0x07	; 7
     346:	c8 2a       	or	r12, r24
     348:	c0 92 7b 00 	sts	0x007B, r12	; 0x80007b <__DATA_REGION_ORIGIN__+0x1b>
     34c:	1f 91       	pop	r17
     34e:	0f 91       	pop	r16
     350:	ef 90       	pop	r14
     352:	df 90       	pop	r13
     354:	cf 90       	pop	r12
     356:	af 90       	pop	r10
     358:	08 95       	ret

0000035a <_ZN11ADC_TypeDef4ReadEhh>:
     35a:	20 91 7a 00 	lds	r18, 0x007A	; 0x80007a <__DATA_REGION_ORIGIN__+0x1a>
     35e:	e4 2f       	mov	r30, r20
     360:	e6 95       	lsr	r30
     362:	80 e8       	ldi	r24, 0x80	; 128
     364:	e8 9f       	mul	r30, r24
     366:	f0 01       	movw	r30, r0
     368:	11 24       	eor	r1, r1
     36a:	84 2f       	mov	r24, r20
     36c:	81 70       	andi	r24, 0x01	; 1
     36e:	90 e0       	ldi	r25, 0x00	; 0
     370:	36 e0       	ldi	r19, 0x06	; 6
     372:	88 0f       	add	r24, r24
     374:	99 1f       	adc	r25, r25
     376:	3a 95       	dec	r19
     378:	e1 f7       	brne	.-8      	; 0x372 <_ZN11ADC_TypeDef4ReadEhh+0x18>
     37a:	8e 2b       	or	r24, r30
     37c:	96 2f       	mov	r25, r22
     37e:	91 70       	andi	r25, 0x01	; 1
     380:	89 2b       	or	r24, r25
     382:	6e 70       	andi	r22, 0x0E	; 14
     384:	86 2b       	or	r24, r22
     386:	80 93 7c 00 	sts	0x007C, r24	; 0x80007c <__DATA_REGION_ORIGIN__+0x1c>
     38a:	8a e6       	ldi	r24, 0x6A	; 106
     38c:	8a 95       	dec	r24
     38e:	f1 f7       	brne	.-4      	; 0x38c <_ZN11ADC_TypeDef4ReadEhh+0x32>
     390:	00 c0       	rjmp	.+0      	; 0x392 <_ZN11ADC_TypeDef4ReadEhh+0x38>
     392:	82 2f       	mov	r24, r18
     394:	80 64       	ori	r24, 0x40	; 64
     396:	80 93 7a 00 	sts	0x007A, r24	; 0x80007a <__DATA_REGION_ORIGIN__+0x1a>
     39a:	80 91 7a 00 	lds	r24, 0x007A	; 0x80007a <__DATA_REGION_ORIGIN__+0x1a>
     39e:	86 fd       	sbrc	r24, 6
     3a0:	fc cf       	rjmp	.-8      	; 0x39a <_ZN11ADC_TypeDef4ReadEhh+0x40>
     3a2:	80 91 78 00 	lds	r24, 0x0078	; 0x800078 <__DATA_REGION_ORIGIN__+0x18>
     3a6:	20 91 79 00 	lds	r18, 0x0079	; 0x800079 <__DATA_REGION_ORIGIN__+0x19>
     3aa:	90 e0       	ldi	r25, 0x00	; 0
     3ac:	92 2b       	or	r25, r18
     3ae:	08 95       	ret

000003b0 <_ZN6DS32314ReadEhPhh>:
     3b0:	cf 92       	push	r12
     3b2:	df 92       	push	r13
     3b4:	ef 92       	push	r14
     3b6:	ff 92       	push	r15
     3b8:	0f 93       	push	r16
     3ba:	1f 93       	push	r17
     3bc:	cf 93       	push	r28
     3be:	df 93       	push	r29
     3c0:	1f 92       	push	r1
     3c2:	cd b7       	in	r28, 0x3d	; 61
     3c4:	de b7       	in	r29, 0x3e	; 62
     3c6:	69 83       	std	Y+1, r22	; 0x01
     3c8:	dc 01       	movw	r26, r24
     3ca:	8d 91       	ld	r24, X+
     3cc:	9c 91       	ld	r25, X
     3ce:	e2 2e       	mov	r14, r18
     3d0:	f1 2c       	mov	r15, r1
     3d2:	dc 01       	movw	r26, r24
     3d4:	ed 91       	ld	r30, X+
     3d6:	fc 91       	ld	r31, X
     3d8:	04 88       	ldd	r0, Z+20	; 0x14
     3da:	f5 89       	ldd	r31, Z+21	; 0x15
     3dc:	e0 2d       	mov	r30, r0
     3de:	24 e6       	ldi	r18, 0x64	; 100
     3e0:	c2 2e       	mov	r12, r18
     3e2:	d1 2c       	mov	r13, r1
     3e4:	8a 01       	movw	r16, r20
     3e6:	21 e0       	ldi	r18, 0x01	; 1
     3e8:	ae 01       	movw	r20, r28
     3ea:	4f 5f       	subi	r20, 0xFF	; 255
     3ec:	5f 4f       	sbci	r21, 0xFF	; 255
     3ee:	60 ed       	ldi	r22, 0xD0	; 208
     3f0:	09 95       	icall
     3f2:	0f 90       	pop	r0
     3f4:	df 91       	pop	r29
     3f6:	cf 91       	pop	r28
     3f8:	1f 91       	pop	r17
     3fa:	0f 91       	pop	r16
     3fc:	ff 90       	pop	r15
     3fe:	ef 90       	pop	r14
     400:	df 90       	pop	r13
     402:	cf 90       	pop	r12
     404:	08 95       	ret

00000406 <_ZN6DS32317GetTimeEPhS0_S0_>:
     406:	cf 92       	push	r12
     408:	df 92       	push	r13
     40a:	ef 92       	push	r14
     40c:	ff 92       	push	r15
     40e:	0f 93       	push	r16
     410:	1f 93       	push	r17
     412:	cf 93       	push	r28
     414:	df 93       	push	r29
     416:	00 d0       	rcall	.+0      	; 0x418 <_ZN6DS32317GetTimeEPhS0_S0_+0x12>
     418:	1f 92       	push	r1
     41a:	cd b7       	in	r28, 0x3d	; 61
     41c:	de b7       	in	r29, 0x3e	; 62
     41e:	6b 01       	movw	r12, r22
     420:	7a 01       	movw	r14, r20
     422:	89 01       	movw	r16, r18
     424:	23 e0       	ldi	r18, 0x03	; 3
     426:	ae 01       	movw	r20, r28
     428:	4f 5f       	subi	r20, 0xFF	; 255
     42a:	5f 4f       	sbci	r21, 0xFF	; 255
     42c:	60 e0       	ldi	r22, 0x00	; 0
     42e:	0e 94 d8 01 	call	0x3b0	; 0x3b0 <_ZN6DS32314ReadEhPhh>
     432:	99 81       	ldd	r25, Y+1	; 0x01
     434:	29 2f       	mov	r18, r25
     436:	26 95       	lsr	r18
     438:	26 95       	lsr	r18
     43a:	26 95       	lsr	r18
     43c:	2e 71       	andi	r18, 0x1E	; 30
     43e:	32 2f       	mov	r19, r18
     440:	33 0f       	add	r19, r19
     442:	33 0f       	add	r19, r19
     444:	23 0f       	add	r18, r19
     446:	9f 70       	andi	r25, 0x0F	; 15
     448:	92 0f       	add	r25, r18
     44a:	f6 01       	movw	r30, r12
     44c:	90 83       	st	Z, r25
     44e:	9a 81       	ldd	r25, Y+2	; 0x02
     450:	29 2f       	mov	r18, r25
     452:	26 95       	lsr	r18
     454:	26 95       	lsr	r18
     456:	26 95       	lsr	r18
     458:	2e 71       	andi	r18, 0x1E	; 30
     45a:	32 2f       	mov	r19, r18
     45c:	33 0f       	add	r19, r19
     45e:	33 0f       	add	r19, r19
     460:	23 0f       	add	r18, r19
     462:	9f 70       	andi	r25, 0x0F	; 15
     464:	92 0f       	add	r25, r18
     466:	f7 01       	movw	r30, r14
     468:	90 83       	st	Z, r25
     46a:	9b 81       	ldd	r25, Y+3	; 0x03
     46c:	29 2f       	mov	r18, r25
     46e:	26 95       	lsr	r18
     470:	26 95       	lsr	r18
     472:	26 95       	lsr	r18
     474:	2e 71       	andi	r18, 0x1E	; 30
     476:	32 2f       	mov	r19, r18
     478:	33 0f       	add	r19, r19
     47a:	33 0f       	add	r19, r19
     47c:	23 0f       	add	r18, r19
     47e:	9f 70       	andi	r25, 0x0F	; 15
     480:	92 0f       	add	r25, r18
     482:	f8 01       	movw	r30, r16
     484:	90 83       	st	Z, r25
     486:	0f 90       	pop	r0
     488:	0f 90       	pop	r0
     48a:	0f 90       	pop	r0
     48c:	df 91       	pop	r29
     48e:	cf 91       	pop	r28
     490:	1f 91       	pop	r17
     492:	0f 91       	pop	r16
     494:	ff 90       	pop	r15
     496:	ef 90       	pop	r14
     498:	df 90       	pop	r13
     49a:	cf 90       	pop	r12
     49c:	08 95       	ret

0000049e <_ZN6DS32317GetDateEPhS0_S0_S0_>:
     49e:	af 92       	push	r10
     4a0:	bf 92       	push	r11
     4a2:	cf 92       	push	r12
     4a4:	df 92       	push	r13
     4a6:	ef 92       	push	r14
     4a8:	ff 92       	push	r15
     4aa:	0f 93       	push	r16
     4ac:	1f 93       	push	r17
     4ae:	cf 93       	push	r28
     4b0:	df 93       	push	r29
     4b2:	00 d0       	rcall	.+0      	; 0x4b4 <_ZN6DS32317GetDateEPhS0_S0_S0_+0x16>
     4b4:	00 d0       	rcall	.+0      	; 0x4b6 <_ZN6DS32317GetDateEPhS0_S0_S0_+0x18>
     4b6:	cd b7       	in	r28, 0x3d	; 61
     4b8:	de b7       	in	r29, 0x3e	; 62
     4ba:	5b 01       	movw	r10, r22
     4bc:	6a 01       	movw	r12, r20
     4be:	79 01       	movw	r14, r18
     4c0:	24 e0       	ldi	r18, 0x04	; 4
     4c2:	ae 01       	movw	r20, r28
     4c4:	4f 5f       	subi	r20, 0xFF	; 255
     4c6:	5f 4f       	sbci	r21, 0xFF	; 255
     4c8:	63 e0       	ldi	r22, 0x03	; 3
     4ca:	0e 94 d8 01 	call	0x3b0	; 0x3b0 <_ZN6DS32314ReadEhPhh>
     4ce:	99 81       	ldd	r25, Y+1	; 0x01
     4d0:	f5 01       	movw	r30, r10
     4d2:	90 83       	st	Z, r25
     4d4:	9a 81       	ldd	r25, Y+2	; 0x02
     4d6:	29 2f       	mov	r18, r25
     4d8:	26 95       	lsr	r18
     4da:	26 95       	lsr	r18
     4dc:	26 95       	lsr	r18
     4de:	2e 71       	andi	r18, 0x1E	; 30
     4e0:	32 2f       	mov	r19, r18
     4e2:	33 0f       	add	r19, r19
     4e4:	33 0f       	add	r19, r19
     4e6:	23 0f       	add	r18, r19
     4e8:	9f 70       	andi	r25, 0x0F	; 15
     4ea:	92 0f       	add	r25, r18
     4ec:	f6 01       	movw	r30, r12
     4ee:	90 83       	st	Z, r25
     4f0:	9b 81       	ldd	r25, Y+3	; 0x03
     4f2:	94 fb       	bst	r25, 4
     4f4:	22 27       	eor	r18, r18
     4f6:	20 f9       	bld	r18, 0
     4f8:	22 0f       	add	r18, r18
     4fa:	32 2f       	mov	r19, r18
     4fc:	33 0f       	add	r19, r19
     4fe:	33 0f       	add	r19, r19
     500:	23 0f       	add	r18, r19
     502:	9f 70       	andi	r25, 0x0F	; 15
     504:	92 0f       	add	r25, r18
     506:	f7 01       	movw	r30, r14
     508:	90 83       	st	Z, r25
     50a:	9c 81       	ldd	r25, Y+4	; 0x04
     50c:	29 2f       	mov	r18, r25
     50e:	26 95       	lsr	r18
     510:	26 95       	lsr	r18
     512:	26 95       	lsr	r18
     514:	2e 71       	andi	r18, 0x1E	; 30
     516:	32 2f       	mov	r19, r18
     518:	33 0f       	add	r19, r19
     51a:	33 0f       	add	r19, r19
     51c:	23 0f       	add	r18, r19
     51e:	9f 70       	andi	r25, 0x0F	; 15
     520:	92 0f       	add	r25, r18
     522:	f8 01       	movw	r30, r16
     524:	90 83       	st	Z, r25
     526:	0f 90       	pop	r0
     528:	0f 90       	pop	r0
     52a:	0f 90       	pop	r0
     52c:	0f 90       	pop	r0
     52e:	df 91       	pop	r29
     530:	cf 91       	pop	r28
     532:	1f 91       	pop	r17
     534:	0f 91       	pop	r16
     536:	ff 90       	pop	r15
     538:	ef 90       	pop	r14
     53a:	df 90       	pop	r13
     53c:	cf 90       	pop	r12
     53e:	bf 90       	pop	r11
     540:	af 90       	pop	r10
     542:	08 95       	ret

00000544 <_ZN9I2CPeriph13GenerateStartEv>:
     544:	fc 01       	movw	r30, r24
     546:	82 81       	ldd	r24, Z+2	; 0x02
     548:	84 6a       	ori	r24, 0xA4	; 164
     54a:	80 93 bc 00 	sts	0x00BC, r24	; 0x8000bc <__DATA_REGION_ORIGIN__+0x5c>
     54e:	08 95       	ret

00000550 <_ZN9I2CPeriph12GenerateStopEv>:
     550:	fc 01       	movw	r30, r24
     552:	82 81       	ldd	r24, Z+2	; 0x02
     554:	84 69       	ori	r24, 0x94	; 148
     556:	80 93 bc 00 	sts	0x00BC, r24	; 0x8000bc <__DATA_REGION_ORIGIN__+0x5c>
     55a:	08 95       	ret

0000055c <_ZN9I2CPeriph8TransmitEh>:
     55c:	60 93 bb 00 	sts	0x00BB, r22	; 0x8000bb <__DATA_REGION_ORIGIN__+0x5b>
     560:	fc 01       	movw	r30, r24
     562:	82 81       	ldd	r24, Z+2	; 0x02
     564:	84 68       	ori	r24, 0x84	; 132
     566:	80 93 bc 00 	sts	0x00BC, r24	; 0x8000bc <__DATA_REGION_ORIGIN__+0x5c>
     56a:	08 95       	ret

0000056c <_ZN9I2CPeriph6SetACKEh>:
     56c:	61 70       	andi	r22, 0x01	; 1
     56e:	fc 01       	movw	r30, r24
     570:	63 83       	std	Z+3, r22	; 0x03
     572:	08 95       	ret

00000574 <_ZN9I2CPeriph7ReceiveEv>:
     574:	fc 01       	movw	r30, r24
     576:	80 91 bb 00 	lds	r24, 0x00BB	; 0x8000bb <__DATA_REGION_ORIGIN__+0x5b>
     57a:	23 81       	ldd	r18, Z+3	; 0x03
     57c:	90 e4       	ldi	r25, 0x40	; 64
     57e:	29 9f       	mul	r18, r25
     580:	90 01       	movw	r18, r0
     582:	11 24       	eor	r1, r1
     584:	92 81       	ldd	r25, Z+2	; 0x02
     586:	94 68       	ori	r25, 0x84	; 132
     588:	29 2b       	or	r18, r25
     58a:	20 93 bc 00 	sts	0x00BC, r18	; 0x8000bc <__DATA_REGION_ORIGIN__+0x5c>
     58e:	08 95       	ret

00000590 <_ZN9I2CPeriph16IsStartConditionEv>:
     590:	20 91 b9 00 	lds	r18, 0x00B9	; 0x8000b9 <__DATA_REGION_ORIGIN__+0x59>
     594:	90 91 b9 00 	lds	r25, 0x00B9	; 0x8000b9 <__DATA_REGION_ORIGIN__+0x59>
     598:	28 7f       	andi	r18, 0xF8	; 248
     59a:	31 e0       	ldi	r19, 0x01	; 1
     59c:	28 30       	cpi	r18, 0x08	; 8
     59e:	09 f0       	breq	.+2      	; 0x5a2 <_ZN9I2CPeriph16IsStartConditionEv+0x12>
     5a0:	30 e0       	ldi	r19, 0x00	; 0
     5a2:	98 7f       	andi	r25, 0xF8	; 248
     5a4:	81 e0       	ldi	r24, 0x01	; 1
     5a6:	90 31       	cpi	r25, 0x10	; 16
     5a8:	09 f0       	breq	.+2      	; 0x5ac <_ZN9I2CPeriph16IsStartConditionEv+0x1c>
     5aa:	80 e0       	ldi	r24, 0x00	; 0
     5ac:	83 2b       	or	r24, r19
     5ae:	08 95       	ret

000005b0 <_ZN9I2CPeriph22IsTransmissionCompleteEv>:
     5b0:	80 91 bc 00 	lds	r24, 0x00BC	; 0x8000bc <__DATA_REGION_ORIGIN__+0x5c>
     5b4:	80 78       	andi	r24, 0x80	; 128
     5b6:	08 95       	ret

000005b8 <_ZN9I2CPeriph6IsBusyEv>:
     5b8:	80 91 b9 00 	lds	r24, 0x00B9	; 0x8000b9 <__DATA_REGION_ORIGIN__+0x59>
     5bc:	80 71       	andi	r24, 0x10	; 16
     5be:	08 95       	ret

000005c0 <_ZN9I2CPeriph5IsACKEv>:
     5c0:	30 91 b9 00 	lds	r19, 0x00B9	; 0x8000b9 <__DATA_REGION_ORIGIN__+0x59>
     5c4:	20 91 b9 00 	lds	r18, 0x00B9	; 0x8000b9 <__DATA_REGION_ORIGIN__+0x59>
     5c8:	90 91 b9 00 	lds	r25, 0x00B9	; 0x8000b9 <__DATA_REGION_ORIGIN__+0x59>
     5cc:	38 7f       	andi	r19, 0xF8	; 248
     5ce:	41 e0       	ldi	r20, 0x01	; 1
     5d0:	38 31       	cpi	r19, 0x18	; 24
     5d2:	09 f0       	breq	.+2      	; 0x5d6 <_ZN9I2CPeriph5IsACKEv+0x16>
     5d4:	40 e0       	ldi	r20, 0x00	; 0
     5d6:	28 7f       	andi	r18, 0xF8	; 248
     5d8:	81 e0       	ldi	r24, 0x01	; 1
     5da:	28 32       	cpi	r18, 0x28	; 40
     5dc:	09 f0       	breq	.+2      	; 0x5e0 <_ZN9I2CPeriph5IsACKEv+0x20>
     5de:	80 e0       	ldi	r24, 0x00	; 0
     5e0:	84 2b       	or	r24, r20
     5e2:	98 7f       	andi	r25, 0xF8	; 248
     5e4:	21 e0       	ldi	r18, 0x01	; 1
     5e6:	90 34       	cpi	r25, 0x40	; 64
     5e8:	09 f0       	breq	.+2      	; 0x5ec <_ZN9I2CPeriph5IsACKEv+0x2c>
     5ea:	20 e0       	ldi	r18, 0x00	; 0
     5ec:	82 2b       	or	r24, r18
     5ee:	08 95       	ret

000005f0 <_ZN9I2CPeriph4InitEP14I2CInitTypeDef>:
     5f0:	0f 93       	push	r16
     5f2:	1f 93       	push	r17
     5f4:	cf 93       	push	r28
     5f6:	df 93       	push	r29
     5f8:	8c 01       	movw	r16, r24
     5fa:	eb 01       	movw	r28, r22
     5fc:	68 81       	ld	r22, Y
     5fe:	79 81       	ldd	r23, Y+1	; 0x01
     600:	8a 81       	ldd	r24, Y+2	; 0x02
     602:	9b 81       	ldd	r25, Y+3	; 0x03
     604:	f8 01       	movw	r30, r16
     606:	64 83       	std	Z+4, r22	; 0x04
     608:	75 83       	std	Z+5, r23	; 0x05
     60a:	86 83       	std	Z+6, r24	; 0x06
     60c:	97 83       	std	Z+7, r25	; 0x07
     60e:	2c 81       	ldd	r18, Y+4	; 0x04
     610:	3d 81       	ldd	r19, Y+5	; 0x05
     612:	4e 81       	ldd	r20, Y+6	; 0x06
     614:	5f 81       	ldd	r21, Y+7	; 0x07
     616:	0e 94 3f 0e 	call	0x1c7e	; 0x1c7e <__udivmodsi4>
     61a:	da 01       	movw	r26, r20
     61c:	c9 01       	movw	r24, r18
     61e:	40 97       	sbiw	r24, 0x10	; 16
     620:	a1 09       	sbc	r26, r1
     622:	b1 09       	sbc	r27, r1
     624:	b6 95       	lsr	r27
     626:	a7 95       	ror	r26
     628:	97 95       	ror	r25
     62a:	87 95       	ror	r24
     62c:	80 93 b8 00 	sts	0x00B8, r24	; 0x8000b8 <__DATA_REGION_ORIGIN__+0x58>
     630:	10 92 b9 00 	sts	0x00B9, r1	; 0x8000b9 <__DATA_REGION_ORIGIN__+0x59>
     634:	88 85       	ldd	r24, Y+8	; 0x08
     636:	98 2f       	mov	r25, r24
     638:	9e 7f       	andi	r25, 0xFE	; 254
     63a:	89 85       	ldd	r24, Y+9	; 0x09
     63c:	81 70       	andi	r24, 0x01	; 1
     63e:	89 2b       	or	r24, r25
     640:	80 93 ba 00 	sts	0x00BA, r24	; 0x8000ba <__DATA_REGION_ORIGIN__+0x5a>
     644:	8a 85       	ldd	r24, Y+10	; 0x0a
     646:	f8 01       	movw	r30, r16
     648:	82 83       	std	Z+2, r24	; 0x02
     64a:	84 60       	ori	r24, 0x04	; 4
     64c:	80 93 bc 00 	sts	0x00BC, r24	; 0x8000bc <__DATA_REGION_ORIGIN__+0x5c>
     650:	df 91       	pop	r29
     652:	cf 91       	pop	r28
     654:	1f 91       	pop	r17
     656:	0f 91       	pop	r16
     658:	08 95       	ret

0000065a <_ZN9I2CPeriph4ReadEhPhhS0_jj>:
     65a:	6f 92       	push	r6
     65c:	7f 92       	push	r7
     65e:	8f 92       	push	r8
     660:	9f 92       	push	r9
     662:	af 92       	push	r10
     664:	bf 92       	push	r11
     666:	cf 92       	push	r12
     668:	df 92       	push	r13
     66a:	ef 92       	push	r14
     66c:	ff 92       	push	r15
     66e:	0f 93       	push	r16
     670:	1f 93       	push	r17
     672:	cf 93       	push	r28
     674:	df 93       	push	r29
     676:	ec 01       	movw	r28, r24
     678:	96 2e       	mov	r9, r22
     67a:	3a 01       	movw	r6, r20
     67c:	82 2e       	mov	r8, r18
     67e:	20 91 b8 00 	lds	r18, 0x00B8	; 0x8000b8 <__DATA_REGION_ORIGIN__+0x58>
     682:	2c 9d       	mul	r18, r12
     684:	c0 01       	movw	r24, r0
     686:	2d 9d       	mul	r18, r13
     688:	90 0d       	add	r25, r0
     68a:	11 24       	eor	r1, r1
     68c:	8e 9d       	mul	r24, r14
     68e:	60 01       	movw	r12, r0
     690:	8f 9d       	mul	r24, r15
     692:	d0 0c       	add	r13, r0
     694:	9e 9d       	mul	r25, r14
     696:	d0 0c       	add	r13, r0
     698:	11 24       	eor	r1, r1
     69a:	e8 81       	ld	r30, Y
     69c:	f9 81       	ldd	r31, Y+1	; 0x01
     69e:	02 80       	ldd	r0, Z+2	; 0x02
     6a0:	f3 81       	ldd	r31, Z+3	; 0x03
     6a2:	e0 2d       	mov	r30, r0
     6a4:	ce 01       	movw	r24, r28
     6a6:	09 95       	icall
     6a8:	e8 81       	ld	r30, Y
     6aa:	f9 81       	ldd	r31, Y+1	; 0x01
     6ac:	04 84       	ldd	r0, Z+12	; 0x0c
     6ae:	f5 85       	ldd	r31, Z+13	; 0x0d
     6b0:	e0 2d       	mov	r30, r0
     6b2:	ce 01       	movw	r24, r28
     6b4:	09 95       	icall
     6b6:	81 11       	cpse	r24, r1
     6b8:	07 c0       	rjmp	.+14     	; 0x6c8 <_ZN9I2CPeriph4ReadEhPhhS0_jj+0x6e>
     6ba:	c1 14       	cp	r12, r1
     6bc:	d1 04       	cpc	r13, r1
     6be:	21 f0       	breq	.+8      	; 0x6c8 <_ZN9I2CPeriph4ReadEhPhhS0_jj+0x6e>
     6c0:	b1 e0       	ldi	r27, 0x01	; 1
     6c2:	cb 1a       	sub	r12, r27
     6c4:	d1 08       	sbc	r13, r1
     6c6:	f0 cf       	rjmp	.-32     	; 0x6a8 <_ZN9I2CPeriph4ReadEhPhhS0_jj+0x4e>
     6c8:	e8 81       	ld	r30, Y
     6ca:	f9 81       	ldd	r31, Y+1	; 0x01
     6cc:	06 80       	ldd	r0, Z+6	; 0x06
     6ce:	f7 81       	ldd	r31, Z+7	; 0x07
     6d0:	e0 2d       	mov	r30, r0
     6d2:	69 2d       	mov	r22, r9
     6d4:	ce 01       	movw	r24, r28
     6d6:	09 95       	icall
     6d8:	e8 81       	ld	r30, Y
     6da:	f9 81       	ldd	r31, Y+1	; 0x01
     6dc:	06 84       	ldd	r0, Z+14	; 0x0e
     6de:	f7 85       	ldd	r31, Z+15	; 0x0f
     6e0:	e0 2d       	mov	r30, r0
     6e2:	ce 01       	movw	r24, r28
     6e4:	09 95       	icall
     6e6:	81 11       	cpse	r24, r1
     6e8:	04 c0       	rjmp	.+8      	; 0x6f2 <_ZN9I2CPeriph4ReadEhPhhS0_jj+0x98>
     6ea:	c1 14       	cp	r12, r1
     6ec:	d1 04       	cpc	r13, r1
     6ee:	09 f0       	breq	.+2      	; 0x6f2 <_ZN9I2CPeriph4ReadEhPhhS0_jj+0x98>
     6f0:	5c c0       	rjmp	.+184    	; 0x7aa <_ZN9I2CPeriph4ReadEhPhhS0_jj+0x150>
     6f2:	e8 81       	ld	r30, Y
     6f4:	f9 81       	ldd	r31, Y+1	; 0x01
     6f6:	00 88       	ldd	r0, Z+16	; 0x10
     6f8:	f1 89       	ldd	r31, Z+17	; 0x11
     6fa:	e0 2d       	mov	r30, r0
     6fc:	ce 01       	movw	r24, r28
     6fe:	09 95       	icall
     700:	88 23       	and	r24, r24
     702:	b9 f1       	breq	.+110    	; 0x772 <_ZN9I2CPeriph4ReadEhPhhS0_jj+0x118>
     704:	53 01       	movw	r10, r6
     706:	68 0c       	add	r6, r8
     708:	71 1c       	adc	r7, r1
     70a:	88 24       	eor	r8, r8
     70c:	83 94       	inc	r8
     70e:	e8 81       	ld	r30, Y
     710:	f9 81       	ldd	r31, Y+1	; 0x01
     712:	6a 14       	cp	r6, r10
     714:	7b 04       	cpc	r7, r11
     716:	c1 f0       	breq	.+48     	; 0x748 <_ZN9I2CPeriph4ReadEhPhhS0_jj+0xee>
     718:	d5 01       	movw	r26, r10
     71a:	6d 91       	ld	r22, X+
     71c:	5d 01       	movw	r10, r26
     71e:	06 80       	ldd	r0, Z+6	; 0x06
     720:	f7 81       	ldd	r31, Z+7	; 0x07
     722:	e0 2d       	mov	r30, r0
     724:	ce 01       	movw	r24, r28
     726:	09 95       	icall
     728:	e8 81       	ld	r30, Y
     72a:	f9 81       	ldd	r31, Y+1	; 0x01
     72c:	06 84       	ldd	r0, Z+14	; 0x0e
     72e:	f7 85       	ldd	r31, Z+15	; 0x0f
     730:	e0 2d       	mov	r30, r0
     732:	ce 01       	movw	r24, r28
     734:	09 95       	icall
     736:	81 11       	cpse	r24, r1
     738:	3c c0       	rjmp	.+120    	; 0x7b2 <_ZN9I2CPeriph4ReadEhPhhS0_jj+0x158>
     73a:	c1 14       	cp	r12, r1
     73c:	d1 04       	cpc	r13, r1
     73e:	c9 f1       	breq	.+114    	; 0x7b2 <_ZN9I2CPeriph4ReadEhPhhS0_jj+0x158>
     740:	f1 e0       	ldi	r31, 0x01	; 1
     742:	cf 1a       	sub	r12, r31
     744:	d1 08       	sbc	r13, r1
     746:	f0 cf       	rjmp	.-32     	; 0x728 <_ZN9I2CPeriph4ReadEhPhhS0_jj+0xce>
     748:	02 80       	ldd	r0, Z+2	; 0x02
     74a:	f3 81       	ldd	r31, Z+3	; 0x03
     74c:	e0 2d       	mov	r30, r0
     74e:	ce 01       	movw	r24, r28
     750:	09 95       	icall
     752:	e8 81       	ld	r30, Y
     754:	f9 81       	ldd	r31, Y+1	; 0x01
     756:	04 84       	ldd	r0, Z+12	; 0x0c
     758:	f5 85       	ldd	r31, Z+13	; 0x0d
     75a:	e0 2d       	mov	r30, r0
     75c:	ce 01       	movw	r24, r28
     75e:	09 95       	icall
     760:	81 11       	cpse	r24, r1
     762:	30 c0       	rjmp	.+96     	; 0x7c4 <_ZN9I2CPeriph4ReadEhPhhS0_jj+0x16a>
     764:	c1 14       	cp	r12, r1
     766:	d1 04       	cpc	r13, r1
     768:	69 f1       	breq	.+90     	; 0x7c4 <_ZN9I2CPeriph4ReadEhPhhS0_jj+0x16a>
     76a:	81 e0       	ldi	r24, 0x01	; 1
     76c:	c8 1a       	sub	r12, r24
     76e:	d1 08       	sbc	r13, r1
     770:	f0 cf       	rjmp	.-32     	; 0x752 <_ZN9I2CPeriph4ReadEhPhhS0_jj+0xf8>
     772:	e8 81       	ld	r30, Y
     774:	f9 81       	ldd	r31, Y+1	; 0x01
     776:	04 80       	ldd	r0, Z+4	; 0x04
     778:	f5 81       	ldd	r31, Z+5	; 0x05
     77a:	e0 2d       	mov	r30, r0
     77c:	ce 01       	movw	r24, r28
     77e:	09 95       	icall
     780:	81 2c       	mov	r8, r1
     782:	81 e0       	ldi	r24, 0x01	; 1
     784:	cd 28       	or	r12, r13
     786:	09 f4       	brne	.+2      	; 0x78a <_ZN9I2CPeriph4ReadEhPhhS0_jj+0x130>
     788:	80 e0       	ldi	r24, 0x00	; 0
     78a:	88 21       	and	r24, r8
     78c:	df 91       	pop	r29
     78e:	cf 91       	pop	r28
     790:	1f 91       	pop	r17
     792:	0f 91       	pop	r16
     794:	ff 90       	pop	r15
     796:	ef 90       	pop	r14
     798:	df 90       	pop	r13
     79a:	cf 90       	pop	r12
     79c:	bf 90       	pop	r11
     79e:	af 90       	pop	r10
     7a0:	9f 90       	pop	r9
     7a2:	8f 90       	pop	r8
     7a4:	7f 90       	pop	r7
     7a6:	6f 90       	pop	r6
     7a8:	08 95       	ret
     7aa:	e1 e0       	ldi	r30, 0x01	; 1
     7ac:	ce 1a       	sub	r12, r30
     7ae:	d1 08       	sbc	r13, r1
     7b0:	93 cf       	rjmp	.-218    	; 0x6d8 <_ZN9I2CPeriph4ReadEhPhhS0_jj+0x7e>
     7b2:	e8 81       	ld	r30, Y
     7b4:	f9 81       	ldd	r31, Y+1	; 0x01
     7b6:	00 88       	ldd	r0, Z+16	; 0x10
     7b8:	f1 89       	ldd	r31, Z+17	; 0x11
     7ba:	e0 2d       	mov	r30, r0
     7bc:	ce 01       	movw	r24, r28
     7be:	09 95       	icall
     7c0:	88 22       	and	r8, r24
     7c2:	a5 cf       	rjmp	.-182    	; 0x70e <_ZN9I2CPeriph4ReadEhPhhS0_jj+0xb4>
     7c4:	69 2d       	mov	r22, r9
     7c6:	61 60       	ori	r22, 0x01	; 1
     7c8:	e8 81       	ld	r30, Y
     7ca:	f9 81       	ldd	r31, Y+1	; 0x01
     7cc:	06 80       	ldd	r0, Z+6	; 0x06
     7ce:	f7 81       	ldd	r31, Z+7	; 0x07
     7d0:	e0 2d       	mov	r30, r0
     7d2:	ce 01       	movw	r24, r28
     7d4:	09 95       	icall
     7d6:	e8 81       	ld	r30, Y
     7d8:	f9 81       	ldd	r31, Y+1	; 0x01
     7da:	06 84       	ldd	r0, Z+14	; 0x0e
     7dc:	f7 85       	ldd	r31, Z+15	; 0x0f
     7de:	e0 2d       	mov	r30, r0
     7e0:	ce 01       	movw	r24, r28
     7e2:	09 95       	icall
     7e4:	81 11       	cpse	r24, r1
     7e6:	07 c0       	rjmp	.+14     	; 0x7f6 <_ZN9I2CPeriph4ReadEhPhhS0_jj+0x19c>
     7e8:	c1 14       	cp	r12, r1
     7ea:	d1 04       	cpc	r13, r1
     7ec:	21 f0       	breq	.+8      	; 0x7f6 <_ZN9I2CPeriph4ReadEhPhhS0_jj+0x19c>
     7ee:	a1 e0       	ldi	r26, 0x01	; 1
     7f0:	ca 1a       	sub	r12, r26
     7f2:	d1 08       	sbc	r13, r1
     7f4:	f0 cf       	rjmp	.-32     	; 0x7d6 <_ZN9I2CPeriph4ReadEhPhhS0_jj+0x17c>
     7f6:	e8 81       	ld	r30, Y
     7f8:	f9 81       	ldd	r31, Y+1	; 0x01
     7fa:	00 88       	ldd	r0, Z+16	; 0x10
     7fc:	f1 89       	ldd	r31, Z+17	; 0x11
     7fe:	e0 2d       	mov	r30, r0
     800:	ce 01       	movw	r24, r28
     802:	09 95       	icall
     804:	88 22       	and	r8, r24
     806:	e8 81       	ld	r30, Y
     808:	f9 81       	ldd	r31, Y+1	; 0x01
     80a:	b1 e0       	ldi	r27, 0x01	; 1
     80c:	eb 16       	cp	r14, r27
     80e:	f1 04       	cpc	r15, r1
     810:	e9 f4       	brne	.+58     	; 0x84c <_ZN9I2CPeriph4ReadEhPhhS0_jj+0x1f2>
     812:	00 84       	ldd	r0, Z+8	; 0x08
     814:	f1 85       	ldd	r31, Z+9	; 0x09
     816:	e0 2d       	mov	r30, r0
     818:	60 e0       	ldi	r22, 0x00	; 0
     81a:	ce 01       	movw	r24, r28
     81c:	09 95       	icall
     81e:	e8 81       	ld	r30, Y
     820:	f9 81       	ldd	r31, Y+1	; 0x01
     822:	02 84       	ldd	r0, Z+10	; 0x0a
     824:	f3 85       	ldd	r31, Z+11	; 0x0b
     826:	e0 2d       	mov	r30, r0
     828:	ce 01       	movw	r24, r28
     82a:	09 95       	icall
     82c:	e8 81       	ld	r30, Y
     82e:	f9 81       	ldd	r31, Y+1	; 0x01
     830:	06 84       	ldd	r0, Z+14	; 0x0e
     832:	f7 85       	ldd	r31, Z+15	; 0x0f
     834:	e0 2d       	mov	r30, r0
     836:	ce 01       	movw	r24, r28
     838:	09 95       	icall
     83a:	81 11       	cpse	r24, r1
     83c:	24 c0       	rjmp	.+72     	; 0x886 <_ZN9I2CPeriph4ReadEhPhhS0_jj+0x22c>
     83e:	c1 14       	cp	r12, r1
     840:	d1 04       	cpc	r13, r1
     842:	09 f1       	breq	.+66     	; 0x886 <_ZN9I2CPeriph4ReadEhPhhS0_jj+0x22c>
     844:	e1 e0       	ldi	r30, 0x01	; 1
     846:	ce 1a       	sub	r12, r30
     848:	d1 08       	sbc	r13, r1
     84a:	f0 cf       	rjmp	.-32     	; 0x82c <_ZN9I2CPeriph4ReadEhPhhS0_jj+0x1d2>
     84c:	00 84       	ldd	r0, Z+8	; 0x08
     84e:	f1 85       	ldd	r31, Z+9	; 0x09
     850:	e0 2d       	mov	r30, r0
     852:	61 e0       	ldi	r22, 0x01	; 1
     854:	ce 01       	movw	r24, r28
     856:	09 95       	icall
     858:	e8 81       	ld	r30, Y
     85a:	f9 81       	ldd	r31, Y+1	; 0x01
     85c:	02 84       	ldd	r0, Z+10	; 0x0a
     85e:	f3 85       	ldd	r31, Z+11	; 0x0b
     860:	e0 2d       	mov	r30, r0
     862:	ce 01       	movw	r24, r28
     864:	09 95       	icall
     866:	e8 81       	ld	r30, Y
     868:	f9 81       	ldd	r31, Y+1	; 0x01
     86a:	06 84       	ldd	r0, Z+14	; 0x0e
     86c:	f7 85       	ldd	r31, Z+15	; 0x0f
     86e:	e0 2d       	mov	r30, r0
     870:	ce 01       	movw	r24, r28
     872:	09 95       	icall
     874:	81 11       	cpse	r24, r1
     876:	18 c0       	rjmp	.+48     	; 0x8a8 <_ZN9I2CPeriph4ReadEhPhhS0_jj+0x24e>
     878:	c1 14       	cp	r12, r1
     87a:	d1 04       	cpc	r13, r1
     87c:	a9 f0       	breq	.+42     	; 0x8a8 <_ZN9I2CPeriph4ReadEhPhhS0_jj+0x24e>
     87e:	b1 e0       	ldi	r27, 0x01	; 1
     880:	cb 1a       	sub	r12, r27
     882:	d1 08       	sbc	r13, r1
     884:	f0 cf       	rjmp	.-32     	; 0x866 <_ZN9I2CPeriph4ReadEhPhhS0_jj+0x20c>
     886:	e8 81       	ld	r30, Y
     888:	f9 81       	ldd	r31, Y+1	; 0x01
     88a:	04 80       	ldd	r0, Z+4	; 0x04
     88c:	f5 81       	ldd	r31, Z+5	; 0x05
     88e:	e0 2d       	mov	r30, r0
     890:	ce 01       	movw	r24, r28
     892:	09 95       	icall
     894:	e8 81       	ld	r30, Y
     896:	f9 81       	ldd	r31, Y+1	; 0x01
     898:	02 84       	ldd	r0, Z+10	; 0x0a
     89a:	f3 85       	ldd	r31, Z+11	; 0x0b
     89c:	e0 2d       	mov	r30, r0
     89e:	ce 01       	movw	r24, r28
     8a0:	09 95       	icall
     8a2:	d8 01       	movw	r26, r16
     8a4:	8c 93       	st	X, r24
     8a6:	6d cf       	rjmp	.-294    	; 0x782 <_ZN9I2CPeriph4ReadEhPhhS0_jj+0x128>
     8a8:	e1 e0       	ldi	r30, 0x01	; 1
     8aa:	ee 1a       	sub	r14, r30
     8ac:	f1 08       	sbc	r15, r1
     8ae:	38 01       	movw	r6, r16
     8b0:	a1 2c       	mov	r10, r1
     8b2:	b1 2c       	mov	r11, r1
     8b4:	bf ef       	ldi	r27, 0xFF	; 255
     8b6:	ab 1a       	sub	r10, r27
     8b8:	bb 0a       	sbc	r11, r27
     8ba:	61 e0       	ldi	r22, 0x01	; 1
     8bc:	ae 14       	cp	r10, r14
     8be:	bf 04       	cpc	r11, r15
     8c0:	08 f0       	brcs	.+2      	; 0x8c4 <_ZN9I2CPeriph4ReadEhPhhS0_jj+0x26a>
     8c2:	60 e0       	ldi	r22, 0x00	; 0
     8c4:	e8 81       	ld	r30, Y
     8c6:	f9 81       	ldd	r31, Y+1	; 0x01
     8c8:	00 84       	ldd	r0, Z+8	; 0x08
     8ca:	f1 85       	ldd	r31, Z+9	; 0x09
     8cc:	e0 2d       	mov	r30, r0
     8ce:	ce 01       	movw	r24, r28
     8d0:	09 95       	icall
     8d2:	e8 81       	ld	r30, Y
     8d4:	f9 81       	ldd	r31, Y+1	; 0x01
     8d6:	02 84       	ldd	r0, Z+10	; 0x0a
     8d8:	f3 85       	ldd	r31, Z+11	; 0x0b
     8da:	e0 2d       	mov	r30, r0
     8dc:	ce 01       	movw	r24, r28
     8de:	09 95       	icall
     8e0:	f3 01       	movw	r30, r6
     8e2:	81 93       	st	Z+, r24
     8e4:	3f 01       	movw	r6, r30
     8e6:	e8 81       	ld	r30, Y
     8e8:	f9 81       	ldd	r31, Y+1	; 0x01
     8ea:	06 84       	ldd	r0, Z+14	; 0x0e
     8ec:	f7 85       	ldd	r31, Z+15	; 0x0f
     8ee:	e0 2d       	mov	r30, r0
     8f0:	ce 01       	movw	r24, r28
     8f2:	09 95       	icall
     8f4:	88 23       	and	r24, r24
     8f6:	a9 f0       	breq	.+42     	; 0x922 <__stack+0x23>
     8f8:	ae 14       	cp	r10, r14
     8fa:	bf 04       	cpc	r11, r15
     8fc:	d8 f2       	brcs	.-74     	; 0x8b4 <_ZN9I2CPeriph4ReadEhPhhS0_jj+0x25a>
     8fe:	e8 81       	ld	r30, Y
     900:	f9 81       	ldd	r31, Y+1	; 0x01
     902:	04 80       	ldd	r0, Z+4	; 0x04
     904:	f5 81       	ldd	r31, Z+5	; 0x05
     906:	e0 2d       	mov	r30, r0
     908:	ce 01       	movw	r24, r28
     90a:	09 95       	icall
     90c:	e0 0e       	add	r14, r16
     90e:	f1 1e       	adc	r15, r17
     910:	e8 81       	ld	r30, Y
     912:	f9 81       	ldd	r31, Y+1	; 0x01
     914:	02 84       	ldd	r0, Z+10	; 0x0a
     916:	f3 85       	ldd	r31, Z+11	; 0x0b
     918:	e0 2d       	mov	r30, r0
     91a:	ce 01       	movw	r24, r28
     91c:	09 95       	icall
     91e:	d7 01       	movw	r26, r14
     920:	c1 cf       	rjmp	.-126    	; 0x8a4 <_ZN9I2CPeriph4ReadEhPhhS0_jj+0x24a>
     922:	c1 14       	cp	r12, r1
     924:	d1 04       	cpc	r13, r1
     926:	41 f3       	breq	.-48     	; 0x8f8 <_ZN9I2CPeriph4ReadEhPhhS0_jj+0x29e>
     928:	f1 e0       	ldi	r31, 0x01	; 1
     92a:	cf 1a       	sub	r12, r31
     92c:	d1 08       	sbc	r13, r1
     92e:	db cf       	rjmp	.-74     	; 0x8e6 <_ZN9I2CPeriph4ReadEhPhhS0_jj+0x28c>

00000930 <_ZN9I2CPeriph5WriteEhPhjj>:
     930:	af 92       	push	r10
     932:	bf 92       	push	r11
     934:	cf 92       	push	r12
     936:	df 92       	push	r13
     938:	ef 92       	push	r14
     93a:	ff 92       	push	r15
     93c:	0f 93       	push	r16
     93e:	1f 93       	push	r17
     940:	cf 93       	push	r28
     942:	df 93       	push	r29
     944:	ec 01       	movw	r28, r24
     946:	d6 2e       	mov	r13, r22
     948:	b4 2e       	mov	r11, r20
     94a:	a5 2e       	mov	r10, r21
     94c:	79 01       	movw	r14, r18
     94e:	20 91 b8 00 	lds	r18, 0x00B8	; 0x8000b8 <__DATA_REGION_ORIGIN__+0x58>
     952:	20 9f       	mul	r18, r16
     954:	c0 01       	movw	r24, r0
     956:	21 9f       	mul	r18, r17
     958:	90 0d       	add	r25, r0
     95a:	11 24       	eor	r1, r1
     95c:	e8 9e       	mul	r14, r24
     95e:	80 01       	movw	r16, r0
     960:	e9 9e       	mul	r14, r25
     962:	10 0d       	add	r17, r0
     964:	f8 9e       	mul	r15, r24
     966:	10 0d       	add	r17, r0
     968:	11 24       	eor	r1, r1
     96a:	e8 81       	ld	r30, Y
     96c:	f9 81       	ldd	r31, Y+1	; 0x01
     96e:	02 80       	ldd	r0, Z+2	; 0x02
     970:	f3 81       	ldd	r31, Z+3	; 0x03
     972:	e0 2d       	mov	r30, r0
     974:	ce 01       	movw	r24, r28
     976:	09 95       	icall
     978:	e8 81       	ld	r30, Y
     97a:	f9 81       	ldd	r31, Y+1	; 0x01
     97c:	04 84       	ldd	r0, Z+12	; 0x0c
     97e:	f5 85       	ldd	r31, Z+13	; 0x0d
     980:	e0 2d       	mov	r30, r0
     982:	ce 01       	movw	r24, r28
     984:	09 95       	icall
     986:	81 11       	cpse	r24, r1
     988:	06 c0       	rjmp	.+12     	; 0x996 <_ZN9I2CPeriph5WriteEhPhjj+0x66>
     98a:	01 15       	cp	r16, r1
     98c:	11 05       	cpc	r17, r1
     98e:	19 f0       	breq	.+6      	; 0x996 <_ZN9I2CPeriph5WriteEhPhjj+0x66>
     990:	01 50       	subi	r16, 0x01	; 1
     992:	11 09       	sbc	r17, r1
     994:	f1 cf       	rjmp	.-30     	; 0x978 <_ZN9I2CPeriph5WriteEhPhjj+0x48>
     996:	e8 81       	ld	r30, Y
     998:	f9 81       	ldd	r31, Y+1	; 0x01
     99a:	06 80       	ldd	r0, Z+6	; 0x06
     99c:	f7 81       	ldd	r31, Z+7	; 0x07
     99e:	e0 2d       	mov	r30, r0
     9a0:	6d 2d       	mov	r22, r13
     9a2:	ce 01       	movw	r24, r28
     9a4:	09 95       	icall
     9a6:	e8 81       	ld	r30, Y
     9a8:	f9 81       	ldd	r31, Y+1	; 0x01
     9aa:	06 84       	ldd	r0, Z+14	; 0x0e
     9ac:	f7 85       	ldd	r31, Z+15	; 0x0f
     9ae:	e0 2d       	mov	r30, r0
     9b0:	ce 01       	movw	r24, r28
     9b2:	09 95       	icall
     9b4:	81 11       	cpse	r24, r1
     9b6:	04 c0       	rjmp	.+8      	; 0x9c0 <_ZN9I2CPeriph5WriteEhPhjj+0x90>
     9b8:	01 15       	cp	r16, r1
     9ba:	11 05       	cpc	r17, r1
     9bc:	09 f0       	breq	.+2      	; 0x9c0 <_ZN9I2CPeriph5WriteEhPhjj+0x90>
     9be:	44 c0       	rjmp	.+136    	; 0xa48 <_ZN9I2CPeriph5WriteEhPhjj+0x118>
     9c0:	e8 81       	ld	r30, Y
     9c2:	f9 81       	ldd	r31, Y+1	; 0x01
     9c4:	00 88       	ldd	r0, Z+16	; 0x10
     9c6:	f1 89       	ldd	r31, Z+17	; 0x11
     9c8:	e0 2d       	mov	r30, r0
     9ca:	ce 01       	movw	r24, r28
     9cc:	09 95       	icall
     9ce:	88 23       	and	r24, r24
     9d0:	19 f1       	breq	.+70     	; 0xa18 <_ZN9I2CPeriph5WriteEhPhjj+0xe8>
     9d2:	cb 2c       	mov	r12, r11
     9d4:	da 2c       	mov	r13, r10
     9d6:	56 01       	movw	r10, r12
     9d8:	ae 0c       	add	r10, r14
     9da:	bf 1c       	adc	r11, r15
     9dc:	ff 24       	eor	r15, r15
     9de:	f3 94       	inc	r15
     9e0:	ac 14       	cp	r10, r12
     9e2:	bd 04       	cpc	r11, r13
     9e4:	d1 f0       	breq	.+52     	; 0xa1a <_ZN9I2CPeriph5WriteEhPhjj+0xea>
     9e6:	f6 01       	movw	r30, r12
     9e8:	61 91       	ld	r22, Z+
     9ea:	6f 01       	movw	r12, r30
     9ec:	e8 81       	ld	r30, Y
     9ee:	f9 81       	ldd	r31, Y+1	; 0x01
     9f0:	06 80       	ldd	r0, Z+6	; 0x06
     9f2:	f7 81       	ldd	r31, Z+7	; 0x07
     9f4:	e0 2d       	mov	r30, r0
     9f6:	ce 01       	movw	r24, r28
     9f8:	09 95       	icall
     9fa:	e8 81       	ld	r30, Y
     9fc:	f9 81       	ldd	r31, Y+1	; 0x01
     9fe:	06 84       	ldd	r0, Z+14	; 0x0e
     a00:	f7 85       	ldd	r31, Z+15	; 0x0f
     a02:	e0 2d       	mov	r30, r0
     a04:	ce 01       	movw	r24, r28
     a06:	09 95       	icall
     a08:	81 11       	cpse	r24, r1
     a0a:	21 c0       	rjmp	.+66     	; 0xa4e <_ZN9I2CPeriph5WriteEhPhjj+0x11e>
     a0c:	01 15       	cp	r16, r1
     a0e:	11 05       	cpc	r17, r1
     a10:	f1 f0       	breq	.+60     	; 0xa4e <_ZN9I2CPeriph5WriteEhPhjj+0x11e>
     a12:	01 50       	subi	r16, 0x01	; 1
     a14:	11 09       	sbc	r17, r1
     a16:	f1 cf       	rjmp	.-30     	; 0x9fa <_ZN9I2CPeriph5WriteEhPhjj+0xca>
     a18:	f1 2c       	mov	r15, r1
     a1a:	e8 81       	ld	r30, Y
     a1c:	f9 81       	ldd	r31, Y+1	; 0x01
     a1e:	04 80       	ldd	r0, Z+4	; 0x04
     a20:	f5 81       	ldd	r31, Z+5	; 0x05
     a22:	e0 2d       	mov	r30, r0
     a24:	ce 01       	movw	r24, r28
     a26:	09 95       	icall
     a28:	81 e0       	ldi	r24, 0x01	; 1
     a2a:	01 2b       	or	r16, r17
     a2c:	09 f4       	brne	.+2      	; 0xa30 <_ZN9I2CPeriph5WriteEhPhjj+0x100>
     a2e:	80 e0       	ldi	r24, 0x00	; 0
     a30:	8f 21       	and	r24, r15
     a32:	df 91       	pop	r29
     a34:	cf 91       	pop	r28
     a36:	1f 91       	pop	r17
     a38:	0f 91       	pop	r16
     a3a:	ff 90       	pop	r15
     a3c:	ef 90       	pop	r14
     a3e:	df 90       	pop	r13
     a40:	cf 90       	pop	r12
     a42:	bf 90       	pop	r11
     a44:	af 90       	pop	r10
     a46:	08 95       	ret
     a48:	01 50       	subi	r16, 0x01	; 1
     a4a:	11 09       	sbc	r17, r1
     a4c:	ac cf       	rjmp	.-168    	; 0x9a6 <_ZN9I2CPeriph5WriteEhPhjj+0x76>
     a4e:	e8 81       	ld	r30, Y
     a50:	f9 81       	ldd	r31, Y+1	; 0x01
     a52:	00 88       	ldd	r0, Z+16	; 0x10
     a54:	f1 89       	ldd	r31, Z+17	; 0x11
     a56:	e0 2d       	mov	r30, r0
     a58:	ce 01       	movw	r24, r28
     a5a:	09 95       	icall
     a5c:	f8 22       	and	r15, r24
     a5e:	c0 cf       	rjmp	.-128    	; 0x9e0 <_ZN9I2CPeriph5WriteEhPhjj+0xb0>

00000a60 <_ZN13Input_TypeDef4InitEv>:
     a60:	af 92       	push	r10
     a62:	cf 92       	push	r12
     a64:	ef 92       	push	r14
     a66:	0f 93       	push	r16
     a68:	a1 2c       	mov	r10, r1
     a6a:	c1 2c       	mov	r12, r1
     a6c:	86 e0       	ldi	r24, 0x06	; 6
     a6e:	e8 2e       	mov	r14, r24
     a70:	00 e0       	ldi	r16, 0x00	; 0
     a72:	20 e0       	ldi	r18, 0x00	; 0
     a74:	41 e0       	ldi	r20, 0x01	; 1
     a76:	61 e0       	ldi	r22, 0x01	; 1
     a78:	8a ea       	ldi	r24, 0xAA	; 170
     a7a:	91 e0       	ldi	r25, 0x01	; 1
     a7c:	0e 94 7c 01 	call	0x2f8	; 0x2f8 <_ZN11ADC_TypeDef4InitEhhhhhhh>
     a80:	0f 91       	pop	r16
     a82:	ef 90       	pop	r14
     a84:	cf 90       	pop	r12
     a86:	af 90       	pop	r10
     a88:	08 95       	ret

00000a8a <_ZN13Input_TypeDef7HandlerEv>:
     a8a:	0f 93       	push	r16
     a8c:	1f 93       	push	r17
     a8e:	cf 93       	push	r28
     a90:	df 93       	push	r29
     a92:	ec 01       	movw	r28, r24
     a94:	88 81       	ld	r24, Y
     a96:	8e 7f       	andi	r24, 0xFE	; 254
     a98:	88 83       	st	Y, r24
     a9a:	4d 99       	sbic	0x09, 5	; 9
     a9c:	b5 c0       	rjmp	.+362    	; 0xc08 <_ZN13Input_TypeDef7HandlerEv+0x17e>
     a9e:	83 ff       	sbrs	r24, 3
     aa0:	b3 c0       	rjmp	.+358    	; 0xc08 <_ZN13Input_TypeDef7HandlerEv+0x17e>
     aa2:	8e ea       	ldi	r24, 0xAE	; 174
     aa4:	91 e0       	ldi	r25, 0x01	; 1
     aa6:	0e 94 7d 09 	call	0x12fa	; 0x12fa <_ZN14System_TypeDef5TicksEv>
     aaa:	00 91 a2 01 	lds	r16, 0x01A2	; 0x8001a2 <__data_end>
     aae:	10 91 a3 01 	lds	r17, 0x01A3	; 0x8001a3 <__data_end+0x1>
     ab2:	20 91 a4 01 	lds	r18, 0x01A4	; 0x8001a4 <__data_end+0x2>
     ab6:	30 91 a5 01 	lds	r19, 0x01A5	; 0x8001a5 <__data_end+0x3>
     aba:	dc 01       	movw	r26, r24
     abc:	cb 01       	movw	r24, r22
     abe:	80 1b       	sub	r24, r16
     ac0:	91 0b       	sbc	r25, r17
     ac2:	a2 0b       	sbc	r26, r18
     ac4:	b3 0b       	sbc	r27, r19
     ac6:	c2 97       	sbiw	r24, 0x32	; 50
     ac8:	a1 05       	cpc	r26, r1
     aca:	b1 05       	cpc	r27, r1
     acc:	08 f4       	brcc	.+2      	; 0xad0 <_ZN13Input_TypeDef7HandlerEv+0x46>
     ace:	9c c0       	rjmp	.+312    	; 0xc08 <_ZN13Input_TypeDef7HandlerEv+0x17e>
     ad0:	88 81       	ld	r24, Y
     ad2:	81 60       	ori	r24, 0x01	; 1
     ad4:	87 7f       	andi	r24, 0xF7	; 247
     ad6:	88 83       	st	Y, r24
     ad8:	88 81       	ld	r24, Y
     ada:	8d 7f       	andi	r24, 0xFD	; 253
     adc:	88 83       	st	Y, r24
     ade:	4b 99       	sbic	0x09, 3	; 9
     ae0:	98 c0       	rjmp	.+304    	; 0xc12 <_ZN13Input_TypeDef7HandlerEv+0x188>
     ae2:	84 ff       	sbrs	r24, 4
     ae4:	96 c0       	rjmp	.+300    	; 0xc12 <_ZN13Input_TypeDef7HandlerEv+0x188>
     ae6:	8e ea       	ldi	r24, 0xAE	; 174
     ae8:	91 e0       	ldi	r25, 0x01	; 1
     aea:	0e 94 7d 09 	call	0x12fa	; 0x12fa <_ZN14System_TypeDef5TicksEv>
     aee:	00 91 a2 01 	lds	r16, 0x01A2	; 0x8001a2 <__data_end>
     af2:	10 91 a3 01 	lds	r17, 0x01A3	; 0x8001a3 <__data_end+0x1>
     af6:	20 91 a4 01 	lds	r18, 0x01A4	; 0x8001a4 <__data_end+0x2>
     afa:	30 91 a5 01 	lds	r19, 0x01A5	; 0x8001a5 <__data_end+0x3>
     afe:	dc 01       	movw	r26, r24
     b00:	cb 01       	movw	r24, r22
     b02:	80 1b       	sub	r24, r16
     b04:	91 0b       	sbc	r25, r17
     b06:	a2 0b       	sbc	r26, r18
     b08:	b3 0b       	sbc	r27, r19
     b0a:	c2 97       	sbiw	r24, 0x32	; 50
     b0c:	a1 05       	cpc	r26, r1
     b0e:	b1 05       	cpc	r27, r1
     b10:	08 f4       	brcc	.+2      	; 0xb14 <_ZN13Input_TypeDef7HandlerEv+0x8a>
     b12:	7f c0       	rjmp	.+254    	; 0xc12 <_ZN13Input_TypeDef7HandlerEv+0x188>
     b14:	88 81       	ld	r24, Y
     b16:	82 60       	ori	r24, 0x02	; 2
     b18:	8f 7e       	andi	r24, 0xEF	; 239
     b1a:	88 83       	st	Y, r24
     b1c:	88 81       	ld	r24, Y
     b1e:	8b 7f       	andi	r24, 0xFB	; 251
     b20:	88 83       	st	Y, r24
     b22:	4a 99       	sbic	0x09, 2	; 9
     b24:	7b c0       	rjmp	.+246    	; 0xc1c <_ZN13Input_TypeDef7HandlerEv+0x192>
     b26:	84 ff       	sbrs	r24, 4
     b28:	79 c0       	rjmp	.+242    	; 0xc1c <_ZN13Input_TypeDef7HandlerEv+0x192>
     b2a:	8e ea       	ldi	r24, 0xAE	; 174
     b2c:	91 e0       	ldi	r25, 0x01	; 1
     b2e:	0e 94 7d 09 	call	0x12fa	; 0x12fa <_ZN14System_TypeDef5TicksEv>
     b32:	00 91 a2 01 	lds	r16, 0x01A2	; 0x8001a2 <__data_end>
     b36:	10 91 a3 01 	lds	r17, 0x01A3	; 0x8001a3 <__data_end+0x1>
     b3a:	20 91 a4 01 	lds	r18, 0x01A4	; 0x8001a4 <__data_end+0x2>
     b3e:	30 91 a5 01 	lds	r19, 0x01A5	; 0x8001a5 <__data_end+0x3>
     b42:	dc 01       	movw	r26, r24
     b44:	cb 01       	movw	r24, r22
     b46:	80 1b       	sub	r24, r16
     b48:	91 0b       	sbc	r25, r17
     b4a:	a2 0b       	sbc	r26, r18
     b4c:	b3 0b       	sbc	r27, r19
     b4e:	c2 97       	sbiw	r24, 0x32	; 50
     b50:	a1 05       	cpc	r26, r1
     b52:	b1 05       	cpc	r27, r1
     b54:	08 f4       	brcc	.+2      	; 0xb58 <_ZN13Input_TypeDef7HandlerEv+0xce>
     b56:	62 c0       	rjmp	.+196    	; 0xc1c <_ZN13Input_TypeDef7HandlerEv+0x192>
     b58:	88 81       	ld	r24, Y
     b5a:	84 60       	ori	r24, 0x04	; 4
     b5c:	8f 7d       	andi	r24, 0xDF	; 223
     b5e:	88 83       	st	Y, r24
     b60:	4d 9b       	sbis	0x09, 5	; 9
     b62:	04 c0       	rjmp	.+8      	; 0xb6c <_ZN13Input_TypeDef7HandlerEv+0xe2>
     b64:	4b 9b       	sbis	0x09, 3	; 9
     b66:	02 c0       	rjmp	.+4      	; 0xb6c <_ZN13Input_TypeDef7HandlerEv+0xe2>
     b68:	4a 99       	sbic	0x09, 2	; 9
     b6a:	5d c0       	rjmp	.+186    	; 0xc26 <_ZN13Input_TypeDef7HandlerEv+0x19c>
     b6c:	8e ea       	ldi	r24, 0xAE	; 174
     b6e:	91 e0       	ldi	r25, 0x01	; 1
     b70:	0e 94 7d 09 	call	0x12fa	; 0x12fa <_ZN14System_TypeDef5TicksEv>
     b74:	00 91 a6 01 	lds	r16, 0x01A6	; 0x8001a6 <sampleTimer>
     b78:	10 91 a7 01 	lds	r17, 0x01A7	; 0x8001a7 <sampleTimer+0x1>
     b7c:	20 91 a8 01 	lds	r18, 0x01A8	; 0x8001a8 <sampleTimer+0x2>
     b80:	30 91 a9 01 	lds	r19, 0x01A9	; 0x8001a9 <sampleTimer+0x3>
     b84:	dc 01       	movw	r26, r24
     b86:	cb 01       	movw	r24, r22
     b88:	80 1b       	sub	r24, r16
     b8a:	91 0b       	sbc	r25, r17
     b8c:	a2 0b       	sbc	r26, r18
     b8e:	b3 0b       	sbc	r27, r19
     b90:	84 3f       	cpi	r24, 0xF4	; 244
     b92:	91 40       	sbci	r25, 0x01	; 1
     b94:	a1 05       	cpc	r26, r1
     b96:	b1 05       	cpc	r27, r1
     b98:	08 f4       	brcc	.+2      	; 0xb9c <_ZN13Input_TypeDef7HandlerEv+0x112>
     b9a:	52 c0       	rjmp	.+164    	; 0xc40 <_ZN13Input_TypeDef7HandlerEv+0x1b6>
     b9c:	80 91 00 01 	lds	r24, 0x0100	; 0x800100 <__data_start>
     ba0:	90 91 01 01 	lds	r25, 0x0101	; 0x800101 <__data_start+0x1>
     ba4:	25 e0       	ldi	r18, 0x05	; 5
     ba6:	28 9f       	mul	r18, r24
     ba8:	80 01       	movw	r16, r0
     baa:	29 9f       	mul	r18, r25
     bac:	10 0d       	add	r17, r0
     bae:	11 24       	eor	r1, r1
     bb0:	41 e0       	ldi	r20, 0x01	; 1
     bb2:	67 e0       	ldi	r22, 0x07	; 7
     bb4:	8a ea       	ldi	r24, 0xAA	; 170
     bb6:	91 e0       	ldi	r25, 0x01	; 1
     bb8:	0e 94 ad 01 	call	0x35a	; 0x35a <_ZN11ADC_TypeDef4ReadEhh>
     bbc:	80 0f       	add	r24, r16
     bbe:	91 1f       	adc	r25, r17
     bc0:	66 e0       	ldi	r22, 0x06	; 6
     bc2:	70 e0       	ldi	r23, 0x00	; 0
     bc4:	0e 94 2b 0e 	call	0x1c56	; 0x1c56 <__udivmodhi4>
     bc8:	70 93 01 01 	sts	0x0101, r23	; 0x800101 <__data_start+0x1>
     bcc:	60 93 00 01 	sts	0x0100, r22	; 0x800100 <__data_start>
     bd0:	8f ef       	ldi	r24, 0xFF	; 255
     bd2:	93 e0       	ldi	r25, 0x03	; 3
     bd4:	86 1b       	sub	r24, r22
     bd6:	97 0b       	sbc	r25, r23
     bd8:	63 e0       	ldi	r22, 0x03	; 3
     bda:	70 e0       	ldi	r23, 0x00	; 0
     bdc:	0e 94 2b 0e 	call	0x1c56	; 0x1c56 <__udivmodhi4>
     be0:	65 36       	cpi	r22, 0x65	; 101
     be2:	71 05       	cpc	r23, r1
     be4:	10 f0       	brcs	.+4      	; 0xbea <_ZN13Input_TypeDef7HandlerEv+0x160>
     be6:	64 e6       	ldi	r22, 0x64	; 100
     be8:	70 e0       	ldi	r23, 0x00	; 0
     bea:	7a 83       	std	Y+2, r23	; 0x02
     bec:	69 83       	std	Y+1, r22	; 0x01
     bee:	8e ea       	ldi	r24, 0xAE	; 174
     bf0:	91 e0       	ldi	r25, 0x01	; 1
     bf2:	0e 94 7d 09 	call	0x12fa	; 0x12fa <_ZN14System_TypeDef5TicksEv>
     bf6:	60 93 a6 01 	sts	0x01A6, r22	; 0x8001a6 <sampleTimer>
     bfa:	70 93 a7 01 	sts	0x01A7, r23	; 0x8001a7 <sampleTimer+0x1>
     bfe:	80 93 a8 01 	sts	0x01A8, r24	; 0x8001a8 <sampleTimer+0x2>
     c02:	90 93 a9 01 	sts	0x01A9, r25	; 0x8001a9 <sampleTimer+0x3>
     c06:	1c c0       	rjmp	.+56     	; 0xc40 <_ZN13Input_TypeDef7HandlerEv+0x1b6>
     c08:	4d 9b       	sbis	0x09, 5	; 9
     c0a:	66 cf       	rjmp	.-308    	; 0xad8 <_ZN13Input_TypeDef7HandlerEv+0x4e>
     c0c:	88 81       	ld	r24, Y
     c0e:	88 60       	ori	r24, 0x08	; 8
     c10:	62 cf       	rjmp	.-316    	; 0xad6 <_ZN13Input_TypeDef7HandlerEv+0x4c>
     c12:	4b 9b       	sbis	0x09, 3	; 9
     c14:	83 cf       	rjmp	.-250    	; 0xb1c <_ZN13Input_TypeDef7HandlerEv+0x92>
     c16:	88 81       	ld	r24, Y
     c18:	80 61       	ori	r24, 0x10	; 16
     c1a:	7f cf       	rjmp	.-258    	; 0xb1a <_ZN13Input_TypeDef7HandlerEv+0x90>
     c1c:	4a 9b       	sbis	0x09, 2	; 9
     c1e:	a0 cf       	rjmp	.-192    	; 0xb60 <_ZN13Input_TypeDef7HandlerEv+0xd6>
     c20:	88 81       	ld	r24, Y
     c22:	80 62       	ori	r24, 0x20	; 32
     c24:	9c cf       	rjmp	.-200    	; 0xb5e <_ZN13Input_TypeDef7HandlerEv+0xd4>
     c26:	8e ea       	ldi	r24, 0xAE	; 174
     c28:	91 e0       	ldi	r25, 0x01	; 1
     c2a:	0e 94 7d 09 	call	0x12fa	; 0x12fa <_ZN14System_TypeDef5TicksEv>
     c2e:	60 93 a2 01 	sts	0x01A2, r22	; 0x8001a2 <__data_end>
     c32:	70 93 a3 01 	sts	0x01A3, r23	; 0x8001a3 <__data_end+0x1>
     c36:	80 93 a4 01 	sts	0x01A4, r24	; 0x8001a4 <__data_end+0x2>
     c3a:	90 93 a5 01 	sts	0x01A5, r25	; 0x8001a5 <__data_end+0x3>
     c3e:	96 cf       	rjmp	.-212    	; 0xb6c <_ZN13Input_TypeDef7HandlerEv+0xe2>
     c40:	df 91       	pop	r29
     c42:	cf 91       	pop	r28
     c44:	1f 91       	pop	r17
     c46:	0f 91       	pop	r16
     c48:	08 95       	ret

00000c4a <__vector_14>:
     c4a:	1f 92       	push	r1
     c4c:	0f 92       	push	r0
     c4e:	0f b6       	in	r0, 0x3f	; 63
     c50:	0f 92       	push	r0
     c52:	11 24       	eor	r1, r1
     c54:	8f 93       	push	r24
     c56:	9f 93       	push	r25
     c58:	af 93       	push	r26
     c5a:	bf 93       	push	r27
     c5c:	80 91 13 02 	lds	r24, 0x0213	; 0x800213 <_ticks>
     c60:	90 91 14 02 	lds	r25, 0x0214	; 0x800214 <_ticks+0x1>
     c64:	a0 91 15 02 	lds	r26, 0x0215	; 0x800215 <_ticks+0x2>
     c68:	b0 91 16 02 	lds	r27, 0x0216	; 0x800216 <_ticks+0x3>
     c6c:	01 96       	adiw	r24, 0x01	; 1
     c6e:	a1 1d       	adc	r26, r1
     c70:	b1 1d       	adc	r27, r1
     c72:	80 93 13 02 	sts	0x0213, r24	; 0x800213 <_ticks>
     c76:	90 93 14 02 	sts	0x0214, r25	; 0x800214 <_ticks+0x1>
     c7a:	a0 93 15 02 	sts	0x0215, r26	; 0x800215 <_ticks+0x2>
     c7e:	b0 93 16 02 	sts	0x0216, r27	; 0x800216 <_ticks+0x3>
     c82:	bf 91       	pop	r27
     c84:	af 91       	pop	r26
     c86:	9f 91       	pop	r25
     c88:	8f 91       	pop	r24
     c8a:	0f 90       	pop	r0
     c8c:	0f be       	out	0x3f, r0	; 63
     c8e:	0f 90       	pop	r0
     c90:	1f 90       	pop	r1
     c92:	18 95       	reti

00000c94 <main>:
     c94:	8e ea       	ldi	r24, 0xAE	; 174
     c96:	91 e0       	ldi	r25, 0x01	; 1
     c98:	0e 94 6b 09 	call	0x12d6	; 0x12d6 <_ZN14System_TypeDef4InitEv>
     c9c:	8b ea       	ldi	r24, 0xAB	; 171
     c9e:	91 e0       	ldi	r25, 0x01	; 1
     ca0:	0e 94 30 05 	call	0xa60	; 0xa60 <_ZN13Input_TypeDef4InitEv>
     ca4:	82 e1       	ldi	r24, 0x12	; 18
     ca6:	92 e0       	ldi	r25, 0x02	; 2
     ca8:	0e 94 b2 09 	call	0x1364	; 0x1364 <_ZN21UserInterface_TypeDef4InitEv>
     cac:	8b ea       	ldi	r24, 0xAB	; 171
     cae:	91 e0       	ldi	r25, 0x01	; 1
     cb0:	0e 94 45 05 	call	0xa8a	; 0xa8a <_ZN13Input_TypeDef7HandlerEv>
     cb4:	82 e1       	ldi	r24, 0x12	; 18
     cb6:	92 e0       	ldi	r25, 0x02	; 2
     cb8:	0e 94 bb 0a 	call	0x1576	; 0x1576 <_ZN21UserInterface_TypeDef7HandlerEv>
     cbc:	f7 cf       	rjmp	.-18     	; 0xcac <main+0x18>

00000cbe <_ZN7MAX72195WriteEhhh>:
     cbe:	ef 92       	push	r14
     cc0:	ff 92       	push	r15
     cc2:	0f 93       	push	r16
     cc4:	1f 93       	push	r17
     cc6:	cf 93       	push	r28
     cc8:	df 93       	push	r29
     cca:	ec 01       	movw	r28, r24
     ccc:	16 2f       	mov	r17, r22
     cce:	f4 2e       	mov	r15, r20
     cd0:	e2 2e       	mov	r14, r18
     cd2:	88 81       	ld	r24, Y
     cd4:	86 17       	cp	r24, r22
     cd6:	10 f0       	brcs	.+4      	; 0xcdc <_ZN7MAX72195WriteEhhh+0x1e>
     cd8:	86 1b       	sub	r24, r22
     cda:	18 2f       	mov	r17, r24
     cdc:	e9 81       	ldd	r30, Y+1	; 0x01
     cde:	fa 81       	ldd	r31, Y+2	; 0x02
     ce0:	20 81       	ld	r18, Z
     ce2:	81 e0       	ldi	r24, 0x01	; 1
     ce4:	90 e0       	ldi	r25, 0x00	; 0
     ce6:	0b 80       	ldd	r0, Y+3	; 0x03
     ce8:	02 c0       	rjmp	.+4      	; 0xcee <_ZN7MAX72195WriteEhhh+0x30>
     cea:	88 0f       	add	r24, r24
     cec:	99 1f       	adc	r25, r25
     cee:	0a 94       	dec	r0
     cf0:	e2 f7       	brpl	.-8      	; 0xcea <_ZN7MAX72195WriteEhhh+0x2c>
     cf2:	80 95       	com	r24
     cf4:	82 23       	and	r24, r18
     cf6:	80 83       	st	Z, r24
     cf8:	00 e0       	ldi	r16, 0x00	; 0
     cfa:	28 81       	ld	r18, Y
     cfc:	02 17       	cp	r16, r18
     cfe:	90 f5       	brcc	.+100    	; 0xd64 <_ZN7MAX72195WriteEhhh+0xa6>
     d00:	8c 81       	ldd	r24, Y+4	; 0x04
     d02:	9d 81       	ldd	r25, Y+5	; 0x05
     d04:	dc 01       	movw	r26, r24
     d06:	ed 91       	ld	r30, X+
     d08:	fc 91       	ld	r31, X
     d0a:	02 80       	ldd	r0, Z+2	; 0x02
     d0c:	f3 81       	ldd	r31, Z+3	; 0x03
     d0e:	e0 2d       	mov	r30, r0
     d10:	10 17       	cp	r17, r16
     d12:	11 f0       	breq	.+4      	; 0xd18 <_ZN7MAX72195WriteEhhh+0x5a>
     d14:	21 17       	cp	r18, r17
     d16:	10 f4       	brcc	.+4      	; 0xd1c <_ZN7MAX72195WriteEhhh+0x5e>
     d18:	6f 2d       	mov	r22, r15
     d1a:	01 c0       	rjmp	.+2      	; 0xd1e <_ZN7MAX72195WriteEhhh+0x60>
     d1c:	60 e0       	ldi	r22, 0x00	; 0
     d1e:	09 95       	icall
     d20:	8c 81       	ldd	r24, Y+4	; 0x04
     d22:	9d 81       	ldd	r25, Y+5	; 0x05
     d24:	dc 01       	movw	r26, r24
     d26:	ed 91       	ld	r30, X+
     d28:	fc 91       	ld	r31, X
     d2a:	04 80       	ldd	r0, Z+4	; 0x04
     d2c:	f5 81       	ldd	r31, Z+5	; 0x05
     d2e:	e0 2d       	mov	r30, r0
     d30:	09 95       	icall
     d32:	88 23       	and	r24, r24
     d34:	a9 f3       	breq	.-22     	; 0xd20 <_ZN7MAX72195WriteEhhh+0x62>
     d36:	8c 81       	ldd	r24, Y+4	; 0x04
     d38:	9d 81       	ldd	r25, Y+5	; 0x05
     d3a:	dc 01       	movw	r26, r24
     d3c:	ed 91       	ld	r30, X+
     d3e:	fc 91       	ld	r31, X
     d40:	02 80       	ldd	r0, Z+2	; 0x02
     d42:	f3 81       	ldd	r31, Z+3	; 0x03
     d44:	e0 2d       	mov	r30, r0
     d46:	6e 2d       	mov	r22, r14
     d48:	09 95       	icall
     d4a:	8c 81       	ldd	r24, Y+4	; 0x04
     d4c:	9d 81       	ldd	r25, Y+5	; 0x05
     d4e:	dc 01       	movw	r26, r24
     d50:	ed 91       	ld	r30, X+
     d52:	fc 91       	ld	r31, X
     d54:	04 80       	ldd	r0, Z+4	; 0x04
     d56:	f5 81       	ldd	r31, Z+5	; 0x05
     d58:	e0 2d       	mov	r30, r0
     d5a:	09 95       	icall
     d5c:	88 23       	and	r24, r24
     d5e:	a9 f3       	breq	.-22     	; 0xd4a <_ZN7MAX72195WriteEhhh+0x8c>
     d60:	0f 5f       	subi	r16, 0xFF	; 255
     d62:	cb cf       	rjmp	.-106    	; 0xcfa <_ZN7MAX72195WriteEhhh+0x3c>
     d64:	e9 81       	ldd	r30, Y+1	; 0x01
     d66:	fa 81       	ldd	r31, Y+2	; 0x02
     d68:	20 81       	ld	r18, Z
     d6a:	81 e0       	ldi	r24, 0x01	; 1
     d6c:	90 e0       	ldi	r25, 0x00	; 0
     d6e:	0b 80       	ldd	r0, Y+3	; 0x03
     d70:	02 c0       	rjmp	.+4      	; 0xd76 <_ZN7MAX72195WriteEhhh+0xb8>
     d72:	88 0f       	add	r24, r24
     d74:	99 1f       	adc	r25, r25
     d76:	0a 94       	dec	r0
     d78:	e2 f7       	brpl	.-8      	; 0xd72 <_ZN7MAX72195WriteEhhh+0xb4>
     d7a:	82 2b       	or	r24, r18
     d7c:	80 83       	st	Z, r24
     d7e:	df 91       	pop	r29
     d80:	cf 91       	pop	r28
     d82:	1f 91       	pop	r17
     d84:	0f 91       	pop	r16
     d86:	ff 90       	pop	r15
     d88:	ef 90       	pop	r14
     d8a:	08 95       	ret

00000d8c <_ZN7MAX72194InitEv>:
     d8c:	1f 93       	push	r17
     d8e:	cf 93       	push	r28
     d90:	df 93       	push	r29
     d92:	ec 01       	movw	r28, r24
     d94:	68 81       	ld	r22, Y
     d96:	6f 5f       	subi	r22, 0xFF	; 255
     d98:	20 e0       	ldi	r18, 0x00	; 0
     d9a:	4c e0       	ldi	r20, 0x0C	; 12
     d9c:	0e 94 5f 06 	call	0xcbe	; 0xcbe <_ZN7MAX72195WriteEhhh>
     da0:	10 e0       	ldi	r17, 0x00	; 0
     da2:	1f 5f       	subi	r17, 0xFF	; 255
     da4:	68 81       	ld	r22, Y
     da6:	6f 5f       	subi	r22, 0xFF	; 255
     da8:	20 e0       	ldi	r18, 0x00	; 0
     daa:	41 2f       	mov	r20, r17
     dac:	ce 01       	movw	r24, r28
     dae:	0e 94 5f 06 	call	0xcbe	; 0xcbe <_ZN7MAX72195WriteEhhh>
     db2:	18 30       	cpi	r17, 0x08	; 8
     db4:	b1 f7       	brne	.-20     	; 0xda2 <_ZN7MAX72194InitEv+0x16>
     db6:	68 81       	ld	r22, Y
     db8:	6f 5f       	subi	r22, 0xFF	; 255
     dba:	27 e0       	ldi	r18, 0x07	; 7
     dbc:	4b e0       	ldi	r20, 0x0B	; 11
     dbe:	ce 01       	movw	r24, r28
     dc0:	0e 94 5f 06 	call	0xcbe	; 0xcbe <_ZN7MAX72195WriteEhhh>
     dc4:	68 81       	ld	r22, Y
     dc6:	6f 5f       	subi	r22, 0xFF	; 255
     dc8:	20 e0       	ldi	r18, 0x00	; 0
     dca:	4f e0       	ldi	r20, 0x0F	; 15
     dcc:	ce 01       	movw	r24, r28
     dce:	0e 94 5f 06 	call	0xcbe	; 0xcbe <_ZN7MAX72195WriteEhhh>
     dd2:	68 81       	ld	r22, Y
     dd4:	6f 5f       	subi	r22, 0xFF	; 255
     dd6:	27 e0       	ldi	r18, 0x07	; 7
     dd8:	4a e0       	ldi	r20, 0x0A	; 10
     dda:	ce 01       	movw	r24, r28
     ddc:	0e 94 5f 06 	call	0xcbe	; 0xcbe <_ZN7MAX72195WriteEhhh>
     de0:	68 81       	ld	r22, Y
     de2:	6f 5f       	subi	r22, 0xFF	; 255
     de4:	21 e0       	ldi	r18, 0x01	; 1
     de6:	4c e0       	ldi	r20, 0x0C	; 12
     de8:	ce 01       	movw	r24, r28
     dea:	df 91       	pop	r29
     dec:	cf 91       	pop	r28
     dee:	1f 91       	pop	r17
     df0:	0c 94 5f 06 	jmp	0xcbe	; 0xcbe <_ZN7MAX72195WriteEhhh>

00000df4 <_ZN7MAX72197DrawPixEjhh>:
     df4:	0f 93       	push	r16
     df6:	1f 93       	push	r17
     df8:	cf 93       	push	r28
     dfa:	df 93       	push	r29
     dfc:	fc 01       	movw	r30, r24
     dfe:	80 81       	ld	r24, Z
     e00:	08 e0       	ldi	r16, 0x08	; 8
     e02:	80 9f       	mul	r24, r16
     e04:	e0 01       	movw	r28, r0
     e06:	11 24       	eor	r1, r1
     e08:	de 01       	movw	r26, r28
     e0a:	11 97       	sbiw	r26, 0x01	; 1
     e0c:	8d 01       	movw	r16, r26
     e0e:	06 1b       	sub	r16, r22
     e10:	17 0b       	sbc	r17, r23
     e12:	b8 01       	movw	r22, r16
     e14:	97 e0       	ldi	r25, 0x07	; 7
     e16:	94 1b       	sub	r25, r20
     e18:	a8 01       	movw	r20, r16
     e1a:	33 e0       	ldi	r19, 0x03	; 3
     e1c:	56 95       	lsr	r21
     e1e:	47 95       	ror	r20
     e20:	3a 95       	dec	r19
     e22:	e1 f7       	brne	.-8      	; 0xe1c <_ZN7MAX72197DrawPixEjhh+0x28>
     e24:	89 9f       	mul	r24, r25
     e26:	40 0d       	add	r20, r0
     e28:	51 1d       	adc	r21, r1
     e2a:	11 24       	eor	r1, r1
     e2c:	4c 17       	cp	r20, r28
     e2e:	5d 07       	cpc	r21, r29
     e30:	08 f0       	brcs	.+2      	; 0xe34 <_ZN7MAX72197DrawPixEjhh+0x40>
     e32:	ad 01       	movw	r20, r26
     e34:	06 80       	ldd	r0, Z+6	; 0x06
     e36:	f7 81       	ldd	r31, Z+7	; 0x07
     e38:	e0 2d       	mov	r30, r0
     e3a:	e4 0f       	add	r30, r20
     e3c:	f5 1f       	adc	r31, r21
     e3e:	90 81       	ld	r25, Z
     e40:	ab 01       	movw	r20, r22
     e42:	47 70       	andi	r20, 0x07	; 7
     e44:	55 27       	eor	r21, r21
     e46:	22 23       	and	r18, r18
     e48:	49 f0       	breq	.+18     	; 0xe5c <_ZN7MAX72197DrawPixEjhh+0x68>
     e4a:	21 e0       	ldi	r18, 0x01	; 1
     e4c:	30 e0       	ldi	r19, 0x00	; 0
     e4e:	01 c0       	rjmp	.+2      	; 0xe52 <_ZN7MAX72197DrawPixEjhh+0x5e>
     e50:	22 0f       	add	r18, r18
     e52:	4a 95       	dec	r20
     e54:	ea f7       	brpl	.-6      	; 0xe50 <_ZN7MAX72197DrawPixEjhh+0x5c>
     e56:	89 2f       	mov	r24, r25
     e58:	82 2b       	or	r24, r18
     e5a:	09 c0       	rjmp	.+18     	; 0xe6e <_ZN7MAX72197DrawPixEjhh+0x7a>
     e5c:	21 e0       	ldi	r18, 0x01	; 1
     e5e:	30 e0       	ldi	r19, 0x00	; 0
     e60:	01 c0       	rjmp	.+2      	; 0xe64 <_ZN7MAX72197DrawPixEjhh+0x70>
     e62:	22 0f       	add	r18, r18
     e64:	4a 95       	dec	r20
     e66:	ea f7       	brpl	.-6      	; 0xe62 <_ZN7MAX72197DrawPixEjhh+0x6e>
     e68:	82 2f       	mov	r24, r18
     e6a:	80 95       	com	r24
     e6c:	89 23       	and	r24, r25
     e6e:	80 83       	st	Z, r24
     e70:	df 91       	pop	r29
     e72:	cf 91       	pop	r28
     e74:	1f 91       	pop	r17
     e76:	0f 91       	pop	r16
     e78:	08 95       	ret

00000e7a <_ZN7MAX72195PrintEc>:
     e7a:	5f 92       	push	r5
     e7c:	6f 92       	push	r6
     e7e:	7f 92       	push	r7
     e80:	8f 92       	push	r8
     e82:	9f 92       	push	r9
     e84:	af 92       	push	r10
     e86:	bf 92       	push	r11
     e88:	cf 92       	push	r12
     e8a:	df 92       	push	r13
     e8c:	ef 92       	push	r14
     e8e:	ff 92       	push	r15
     e90:	0f 93       	push	r16
     e92:	1f 93       	push	r17
     e94:	cf 93       	push	r28
     e96:	df 93       	push	r29
     e98:	ec 01       	movw	r28, r24
     e9a:	60 52       	subi	r22, 0x20	; 32
     e9c:	26 e0       	ldi	r18, 0x06	; 6
     e9e:	62 9f       	mul	r22, r18
     ea0:	f0 01       	movw	r30, r0
     ea2:	11 24       	eor	r1, r1
     ea4:	e3 58       	subi	r30, 0x83	; 131
     ea6:	ff 4f       	sbci	r31, 0xFF	; 255
     ea8:	54 90       	lpm	r5, Z
     eaa:	36 e0       	ldi	r19, 0x06	; 6
     eac:	63 9f       	mul	r22, r19
     eae:	80 01       	movw	r16, r0
     eb0:	11 24       	eor	r1, r1
     eb2:	e1 2c       	mov	r14, r1
     eb4:	f1 2c       	mov	r15, r1
     eb6:	87 e0       	ldi	r24, 0x07	; 7
     eb8:	a8 2e       	mov	r10, r24
     eba:	b1 2c       	mov	r11, r1
     ebc:	28 85       	ldd	r18, Y+8	; 0x08
     ebe:	39 85       	ldd	r19, Y+9	; 0x09
     ec0:	88 81       	ld	r24, Y
     ec2:	e5 14       	cp	r14, r5
     ec4:	08 f0       	brcs	.+2      	; 0xec8 <_ZN7MAX72195PrintEc+0x4e>
     ec6:	40 c0       	rjmp	.+128    	; 0xf48 <_ZN7MAX72195PrintEc+0xce>
     ec8:	a7 01       	movw	r20, r14
     eca:	42 0f       	add	r20, r18
     ecc:	53 1f       	adc	r21, r19
     ece:	98 e0       	ldi	r25, 0x08	; 8
     ed0:	89 9f       	mul	r24, r25
     ed2:	b0 01       	movw	r22, r0
     ed4:	11 24       	eor	r1, r1
     ed6:	46 17       	cp	r20, r22
     ed8:	57 07       	cpc	r21, r23
     eda:	b4 f5       	brge	.+108    	; 0xf48 <_ZN7MAX72195PrintEc+0xce>
     edc:	57 ff       	sbrs	r21, 7
     ede:	04 c0       	rjmp	.+8      	; 0xee8 <_ZN7MAX72195PrintEc+0x6e>
     ee0:	ef ef       	ldi	r30, 0xFF	; 255
     ee2:	ee 1a       	sub	r14, r30
     ee4:	fe 0a       	sbc	r15, r30
     ee6:	ea cf       	rjmp	.-44     	; 0xebc <_ZN7MAX72195PrintEc+0x42>
     ee8:	c8 01       	movw	r24, r16
     eea:	8e 0d       	add	r24, r14
     eec:	9f 1d       	adc	r25, r15
     eee:	9c 01       	movw	r18, r24
     ef0:	28 58       	subi	r18, 0x88	; 136
     ef2:	3f 4f       	sbci	r19, 0xFF	; 255
     ef4:	39 01       	movw	r6, r18
     ef6:	c1 2c       	mov	r12, r1
     ef8:	d1 2c       	mov	r13, r1
     efa:	47 01       	movw	r8, r14
     efc:	99 24       	eor	r9, r9
     efe:	4a 85       	ldd	r20, Y+10	; 0x0a
     f00:	c5 01       	movw	r24, r10
     f02:	8c 19       	sub	r24, r12
     f04:	9d 09       	sbc	r25, r13
     f06:	84 0f       	add	r24, r20
     f08:	91 1d       	adc	r25, r1
     f0a:	47 fd       	sbrc	r20, 7
     f0c:	9a 95       	dec	r25
     f0e:	08 97       	sbiw	r24, 0x08	; 8
     f10:	98 f4       	brcc	.+38     	; 0xf38 <_ZN7MAX72195PrintEc+0xbe>
     f12:	f3 01       	movw	r30, r6
     f14:	24 91       	lpm	r18, Z
     f16:	30 e0       	ldi	r19, 0x00	; 0
     f18:	0c 2c       	mov	r0, r12
     f1a:	02 c0       	rjmp	.+4      	; 0xf20 <_ZN7MAX72195PrintEc+0xa6>
     f1c:	35 95       	asr	r19
     f1e:	27 95       	ror	r18
     f20:	0a 94       	dec	r0
     f22:	e2 f7       	brpl	.-8      	; 0xf1c <_ZN7MAX72195PrintEc+0xa2>
     f24:	21 70       	andi	r18, 0x01	; 1
     f26:	49 5f       	subi	r20, 0xF9	; 249
     f28:	4c 19       	sub	r20, r12
     f2a:	68 85       	ldd	r22, Y+8	; 0x08
     f2c:	79 85       	ldd	r23, Y+9	; 0x09
     f2e:	68 0d       	add	r22, r8
     f30:	79 1d       	adc	r23, r9
     f32:	ce 01       	movw	r24, r28
     f34:	0e 94 fa 06 	call	0xdf4	; 0xdf4 <_ZN7MAX72197DrawPixEjhh>
     f38:	ff ef       	ldi	r31, 0xFF	; 255
     f3a:	cf 1a       	sub	r12, r31
     f3c:	df 0a       	sbc	r13, r31
     f3e:	28 e0       	ldi	r18, 0x08	; 8
     f40:	c2 16       	cp	r12, r18
     f42:	d1 04       	cpc	r13, r1
     f44:	e1 f6       	brne	.-72     	; 0xefe <_ZN7MAX72195PrintEc+0x84>
     f46:	cc cf       	rjmp	.-104    	; 0xee0 <_ZN7MAX72195PrintEc+0x66>
     f48:	e5 2c       	mov	r14, r5
     f4a:	f1 2c       	mov	r15, r1
     f4c:	2e 0d       	add	r18, r14
     f4e:	3f 1d       	adc	r19, r15
     f50:	48 e0       	ldi	r20, 0x08	; 8
     f52:	84 9f       	mul	r24, r20
     f54:	c0 01       	movw	r24, r0
     f56:	11 24       	eor	r1, r1
     f58:	28 17       	cp	r18, r24
     f5a:	39 07       	cpc	r19, r25
     f5c:	b8 f0       	brcs	.+46     	; 0xf8c <_ZN7MAX72195PrintEc+0x112>
     f5e:	e8 85       	ldd	r30, Y+8	; 0x08
     f60:	f9 85       	ldd	r31, Y+9	; 0x09
     f62:	31 96       	adiw	r30, 0x01	; 1
     f64:	ee 0d       	add	r30, r14
     f66:	ff 1d       	adc	r31, r15
     f68:	f9 87       	std	Y+9, r31	; 0x09
     f6a:	e8 87       	std	Y+8, r30	; 0x08
     f6c:	df 91       	pop	r29
     f6e:	cf 91       	pop	r28
     f70:	1f 91       	pop	r17
     f72:	0f 91       	pop	r16
     f74:	ff 90       	pop	r15
     f76:	ef 90       	pop	r14
     f78:	df 90       	pop	r13
     f7a:	cf 90       	pop	r12
     f7c:	bf 90       	pop	r11
     f7e:	af 90       	pop	r10
     f80:	9f 90       	pop	r9
     f82:	8f 90       	pop	r8
     f84:	7f 90       	pop	r7
     f86:	6f 90       	pop	r6
     f88:	5f 90       	pop	r5
     f8a:	08 95       	ret
     f8c:	10 e0       	ldi	r17, 0x00	; 0
     f8e:	4a 85       	ldd	r20, Y+10	; 0x0a
     f90:	41 0f       	add	r20, r17
     f92:	68 85       	ldd	r22, Y+8	; 0x08
     f94:	79 85       	ldd	r23, Y+9	; 0x09
     f96:	6e 0d       	add	r22, r14
     f98:	7f 1d       	adc	r23, r15
     f9a:	20 e0       	ldi	r18, 0x00	; 0
     f9c:	ce 01       	movw	r24, r28
     f9e:	0e 94 fa 06 	call	0xdf4	; 0xdf4 <_ZN7MAX72197DrawPixEjhh>
     fa2:	1f 5f       	subi	r17, 0xFF	; 255
     fa4:	18 30       	cpi	r17, 0x08	; 8
     fa6:	99 f7       	brne	.-26     	; 0xf8e <_ZN7MAX72195PrintEc+0x114>
     fa8:	da cf       	rjmp	.-76     	; 0xf5e <_ZN7MAX72195PrintEc+0xe4>

00000faa <_ZN7MAX721910DrawBufferEh>:
     faa:	9f 92       	push	r9
     fac:	af 92       	push	r10
     fae:	bf 92       	push	r11
     fb0:	cf 92       	push	r12
     fb2:	df 92       	push	r13
     fb4:	ef 92       	push	r14
     fb6:	ff 92       	push	r15
     fb8:	0f 93       	push	r16
     fba:	1f 93       	push	r17
     fbc:	cf 93       	push	r28
     fbe:	df 93       	push	r29
     fc0:	ec 01       	movw	r28, r24
     fc2:	66 23       	and	r22, r22
     fc4:	09 f4       	brne	.+2      	; 0xfc8 <_ZN7MAX721910DrawBufferEh+0x1e>
     fc6:	82 c0       	rjmp	.+260    	; 0x10cc <_ZN7MAX721910DrawBufferEh+0x122>
     fc8:	07 e0       	ldi	r16, 0x07	; 7
     fca:	10 e0       	ldi	r17, 0x00	; 0
     fcc:	bb 24       	eor	r11, r11
     fce:	b3 94       	inc	r11
     fd0:	ee 24       	eor	r14, r14
     fd2:	e3 94       	inc	r14
     fd4:	f1 2c       	mov	r15, r1
     fd6:	27 e0       	ldi	r18, 0x07	; 7
     fd8:	c2 2e       	mov	r12, r18
     fda:	d1 2c       	mov	r13, r1
     fdc:	e9 81       	ldd	r30, Y+1	; 0x01
     fde:	fa 81       	ldd	r31, Y+2	; 0x02
     fe0:	90 81       	ld	r25, Z
     fe2:	97 01       	movw	r18, r14
     fe4:	0b 80       	ldd	r0, Y+3	; 0x03
     fe6:	02 c0       	rjmp	.+4      	; 0xfec <_ZN7MAX721910DrawBufferEh+0x42>
     fe8:	22 0f       	add	r18, r18
     fea:	33 1f       	adc	r19, r19
     fec:	0a 94       	dec	r0
     fee:	e2 f7       	brpl	.-8      	; 0xfe8 <_ZN7MAX721910DrawBufferEh+0x3e>
     ff0:	82 2f       	mov	r24, r18
     ff2:	80 95       	com	r24
     ff4:	89 23       	and	r24, r25
     ff6:	80 83       	st	Z, r24
     ff8:	a1 2c       	mov	r10, r1
     ffa:	28 81       	ld	r18, Y
     ffc:	a2 16       	cp	r10, r18
     ffe:	08 f0       	brcs	.+2      	; 0x1002 <_ZN7MAX721910DrawBufferEh+0x58>
    1000:	52 c0       	rjmp	.+164    	; 0x10a6 <_ZN7MAX721910DrawBufferEh+0xfc>
    1002:	20 9f       	mul	r18, r16
    1004:	c0 01       	movw	r24, r0
    1006:	21 9f       	mul	r18, r17
    1008:	90 0d       	add	r25, r0
    100a:	11 24       	eor	r1, r1
    100c:	ee 81       	ldd	r30, Y+6	; 0x06
    100e:	ff 81       	ldd	r31, Y+7	; 0x07
    1010:	e8 0f       	add	r30, r24
    1012:	f9 1f       	adc	r31, r25
    1014:	ea 0d       	add	r30, r10
    1016:	f1 1d       	adc	r31, r1
    1018:	40 81       	ld	r20, Z
    101a:	50 e0       	ldi	r21, 0x00	; 0
    101c:	80 e0       	ldi	r24, 0x00	; 0
    101e:	90 e0       	ldi	r25, 0x00	; 0
    1020:	91 2c       	mov	r9, r1
    1022:	96 01       	movw	r18, r12
    1024:	28 1b       	sub	r18, r24
    1026:	39 0b       	sbc	r19, r25
    1028:	ba 01       	movw	r22, r20
    102a:	02 c0       	rjmp	.+4      	; 0x1030 <_ZN7MAX721910DrawBufferEh+0x86>
    102c:	75 95       	asr	r23
    102e:	67 95       	ror	r22
    1030:	2a 95       	dec	r18
    1032:	e2 f7       	brpl	.-8      	; 0x102c <_ZN7MAX721910DrawBufferEh+0x82>
    1034:	9b 01       	movw	r18, r22
    1036:	21 70       	andi	r18, 0x01	; 1
    1038:	33 27       	eor	r19, r19
    103a:	08 2e       	mov	r0, r24
    103c:	01 c0       	rjmp	.+2      	; 0x1040 <_ZN7MAX721910DrawBufferEh+0x96>
    103e:	22 0f       	add	r18, r18
    1040:	0a 94       	dec	r0
    1042:	ea f7       	brpl	.-6      	; 0x103e <_ZN7MAX721910DrawBufferEh+0x94>
    1044:	92 2a       	or	r9, r18
    1046:	01 96       	adiw	r24, 0x01	; 1
    1048:	88 30       	cpi	r24, 0x08	; 8
    104a:	91 05       	cpc	r25, r1
    104c:	51 f7       	brne	.-44     	; 0x1022 <_ZN7MAX721910DrawBufferEh+0x78>
    104e:	8c 81       	ldd	r24, Y+4	; 0x04
    1050:	9d 81       	ldd	r25, Y+5	; 0x05
    1052:	dc 01       	movw	r26, r24
    1054:	ed 91       	ld	r30, X+
    1056:	fc 91       	ld	r31, X
    1058:	02 80       	ldd	r0, Z+2	; 0x02
    105a:	f3 81       	ldd	r31, Z+3	; 0x03
    105c:	e0 2d       	mov	r30, r0
    105e:	6b 2d       	mov	r22, r11
    1060:	09 95       	icall
    1062:	8c 81       	ldd	r24, Y+4	; 0x04
    1064:	9d 81       	ldd	r25, Y+5	; 0x05
    1066:	dc 01       	movw	r26, r24
    1068:	ed 91       	ld	r30, X+
    106a:	fc 91       	ld	r31, X
    106c:	04 80       	ldd	r0, Z+4	; 0x04
    106e:	f5 81       	ldd	r31, Z+5	; 0x05
    1070:	e0 2d       	mov	r30, r0
    1072:	09 95       	icall
    1074:	88 23       	and	r24, r24
    1076:	a9 f3       	breq	.-22     	; 0x1062 <_ZN7MAX721910DrawBufferEh+0xb8>
    1078:	8c 81       	ldd	r24, Y+4	; 0x04
    107a:	9d 81       	ldd	r25, Y+5	; 0x05
    107c:	dc 01       	movw	r26, r24
    107e:	ed 91       	ld	r30, X+
    1080:	fc 91       	ld	r31, X
    1082:	02 80       	ldd	r0, Z+2	; 0x02
    1084:	f3 81       	ldd	r31, Z+3	; 0x03
    1086:	e0 2d       	mov	r30, r0
    1088:	69 2d       	mov	r22, r9
    108a:	09 95       	icall
    108c:	8c 81       	ldd	r24, Y+4	; 0x04
    108e:	9d 81       	ldd	r25, Y+5	; 0x05
    1090:	dc 01       	movw	r26, r24
    1092:	ed 91       	ld	r30, X+
    1094:	fc 91       	ld	r31, X
    1096:	04 80       	ldd	r0, Z+4	; 0x04
    1098:	f5 81       	ldd	r31, Z+5	; 0x05
    109a:	e0 2d       	mov	r30, r0
    109c:	09 95       	icall
    109e:	88 23       	and	r24, r24
    10a0:	a9 f3       	breq	.-22     	; 0x108c <_ZN7MAX721910DrawBufferEh+0xe2>
    10a2:	a3 94       	inc	r10
    10a4:	aa cf       	rjmp	.-172    	; 0xffa <_ZN7MAX721910DrawBufferEh+0x50>
    10a6:	e9 81       	ldd	r30, Y+1	; 0x01
    10a8:	fa 81       	ldd	r31, Y+2	; 0x02
    10aa:	20 81       	ld	r18, Z
    10ac:	c7 01       	movw	r24, r14
    10ae:	0b 80       	ldd	r0, Y+3	; 0x03
    10b0:	02 c0       	rjmp	.+4      	; 0x10b6 <_ZN7MAX721910DrawBufferEh+0x10c>
    10b2:	88 0f       	add	r24, r24
    10b4:	99 1f       	adc	r25, r25
    10b6:	0a 94       	dec	r0
    10b8:	e2 f7       	brpl	.-8      	; 0x10b2 <_ZN7MAX721910DrawBufferEh+0x108>
    10ba:	82 2b       	or	r24, r18
    10bc:	80 83       	st	Z, r24
    10be:	b3 94       	inc	r11
    10c0:	01 50       	subi	r16, 0x01	; 1
    10c2:	11 09       	sbc	r17, r1
    10c4:	b9 e0       	ldi	r27, 0x09	; 9
    10c6:	bb 12       	cpse	r11, r27
    10c8:	89 cf       	rjmp	.-238    	; 0xfdc <_ZN7MAX721910DrawBufferEh+0x32>
    10ca:	66 c0       	rjmp	.+204    	; 0x1198 <_ZN7MAX721910DrawBufferEh+0x1ee>
    10cc:	00 e0       	ldi	r16, 0x00	; 0
    10ce:	10 e0       	ldi	r17, 0x00	; 0
    10d0:	ee 24       	eor	r14, r14
    10d2:	e3 94       	inc	r14
    10d4:	f1 2c       	mov	r15, r1
    10d6:	e9 81       	ldd	r30, Y+1	; 0x01
    10d8:	fa 81       	ldd	r31, Y+2	; 0x02
    10da:	90 81       	ld	r25, Z
    10dc:	97 01       	movw	r18, r14
    10de:	0b 80       	ldd	r0, Y+3	; 0x03
    10e0:	02 c0       	rjmp	.+4      	; 0x10e6 <_ZN7MAX721910DrawBufferEh+0x13c>
    10e2:	22 0f       	add	r18, r18
    10e4:	33 1f       	adc	r19, r19
    10e6:	0a 94       	dec	r0
    10e8:	e2 f7       	brpl	.-8      	; 0x10e2 <_ZN7MAX721910DrawBufferEh+0x138>
    10ea:	82 2f       	mov	r24, r18
    10ec:	80 95       	com	r24
    10ee:	89 23       	and	r24, r25
    10f0:	80 83       	st	Z, r24
    10f2:	d8 80       	ld	r13, Y
    10f4:	d3 94       	inc	r13
    10f6:	cc 24       	eor	r12, r12
    10f8:	c3 94       	inc	r12
    10fa:	c0 0e       	add	r12, r16
    10fc:	dd 20       	and	r13, r13
    10fe:	d1 f1       	breq	.+116    	; 0x1174 <_ZN7MAX721910DrawBufferEh+0x1ca>
    1100:	8c 81       	ldd	r24, Y+4	; 0x04
    1102:	9d 81       	ldd	r25, Y+5	; 0x05
    1104:	dc 01       	movw	r26, r24
    1106:	ed 91       	ld	r30, X+
    1108:	fc 91       	ld	r31, X
    110a:	02 80       	ldd	r0, Z+2	; 0x02
    110c:	f3 81       	ldd	r31, Z+3	; 0x03
    110e:	e0 2d       	mov	r30, r0
    1110:	6c 2d       	mov	r22, r12
    1112:	09 95       	icall
    1114:	8c 81       	ldd	r24, Y+4	; 0x04
    1116:	9d 81       	ldd	r25, Y+5	; 0x05
    1118:	dc 01       	movw	r26, r24
    111a:	ed 91       	ld	r30, X+
    111c:	fc 91       	ld	r31, X
    111e:	04 80       	ldd	r0, Z+4	; 0x04
    1120:	f5 81       	ldd	r31, Z+5	; 0x05
    1122:	e0 2d       	mov	r30, r0
    1124:	09 95       	icall
    1126:	88 23       	and	r24, r24
    1128:	a9 f3       	breq	.-22     	; 0x1114 <_ZN7MAX721910DrawBufferEh+0x16a>
    112a:	8c 81       	ldd	r24, Y+4	; 0x04
    112c:	9d 81       	ldd	r25, Y+5	; 0x05
    112e:	48 81       	ld	r20, Y
    1130:	40 9f       	mul	r20, r16
    1132:	90 01       	movw	r18, r0
    1134:	41 9f       	mul	r20, r17
    1136:	30 0d       	add	r19, r0
    1138:	11 24       	eor	r1, r1
    113a:	ae 81       	ldd	r26, Y+6	; 0x06
    113c:	bf 81       	ldd	r27, Y+7	; 0x07
    113e:	a2 0f       	add	r26, r18
    1140:	b3 1f       	adc	r27, r19
    1142:	ad 0d       	add	r26, r13
    1144:	b1 1d       	adc	r27, r1
    1146:	11 97       	sbiw	r26, 0x01	; 1
    1148:	fc 01       	movw	r30, r24
    114a:	20 81       	ld	r18, Z
    114c:	31 81       	ldd	r19, Z+1	; 0x01
    114e:	f9 01       	movw	r30, r18
    1150:	22 81       	ldd	r18, Z+2	; 0x02
    1152:	33 81       	ldd	r19, Z+3	; 0x03
    1154:	6c 91       	ld	r22, X
    1156:	f9 01       	movw	r30, r18
    1158:	09 95       	icall
    115a:	8c 81       	ldd	r24, Y+4	; 0x04
    115c:	9d 81       	ldd	r25, Y+5	; 0x05
    115e:	dc 01       	movw	r26, r24
    1160:	ed 91       	ld	r30, X+
    1162:	fc 91       	ld	r31, X
    1164:	04 80       	ldd	r0, Z+4	; 0x04
    1166:	f5 81       	ldd	r31, Z+5	; 0x05
    1168:	e0 2d       	mov	r30, r0
    116a:	09 95       	icall
    116c:	88 23       	and	r24, r24
    116e:	a9 f3       	breq	.-22     	; 0x115a <_ZN7MAX721910DrawBufferEh+0x1b0>
    1170:	da 94       	dec	r13
    1172:	c4 cf       	rjmp	.-120    	; 0x10fc <_ZN7MAX721910DrawBufferEh+0x152>
    1174:	e9 81       	ldd	r30, Y+1	; 0x01
    1176:	fa 81       	ldd	r31, Y+2	; 0x02
    1178:	20 81       	ld	r18, Z
    117a:	c7 01       	movw	r24, r14
    117c:	0b 80       	ldd	r0, Y+3	; 0x03
    117e:	02 c0       	rjmp	.+4      	; 0x1184 <_ZN7MAX721910DrawBufferEh+0x1da>
    1180:	88 0f       	add	r24, r24
    1182:	99 1f       	adc	r25, r25
    1184:	0a 94       	dec	r0
    1186:	e2 f7       	brpl	.-8      	; 0x1180 <_ZN7MAX721910DrawBufferEh+0x1d6>
    1188:	82 2b       	or	r24, r18
    118a:	80 83       	st	Z, r24
    118c:	0f 5f       	subi	r16, 0xFF	; 255
    118e:	1f 4f       	sbci	r17, 0xFF	; 255
    1190:	08 30       	cpi	r16, 0x08	; 8
    1192:	11 05       	cpc	r17, r1
    1194:	09 f0       	breq	.+2      	; 0x1198 <_ZN7MAX721910DrawBufferEh+0x1ee>
    1196:	9f cf       	rjmp	.-194    	; 0x10d6 <_ZN7MAX721910DrawBufferEh+0x12c>
    1198:	df 91       	pop	r29
    119a:	cf 91       	pop	r28
    119c:	1f 91       	pop	r17
    119e:	0f 91       	pop	r16
    11a0:	ff 90       	pop	r15
    11a2:	ef 90       	pop	r14
    11a4:	df 90       	pop	r13
    11a6:	cf 90       	pop	r12
    11a8:	bf 90       	pop	r11
    11aa:	af 90       	pop	r10
    11ac:	9f 90       	pop	r9
    11ae:	08 95       	ret

000011b0 <_ZN9SPIPeriph8TransmitEh>:
    11b0:	6e bd       	out	0x2e, r22	; 46
    11b2:	08 95       	ret

000011b4 <_ZN9SPIPeriph7ReceiveEv>:
    11b4:	8e b5       	in	r24, 0x2e	; 46
    11b6:	08 95       	ret

000011b8 <_ZN9SPIPeriph22IsTransmissionCompleteEv>:
    11b8:	8d b5       	in	r24, 0x2d	; 45
    11ba:	80 78       	andi	r24, 0x80	; 128
    11bc:	08 95       	ret

000011be <_ZN9SPIPeriph4InitEP14SPIInitTypeDef>:
    11be:	fb 01       	movw	r30, r22
    11c0:	25 81       	ldd	r18, Z+5	; 0x05
    11c2:	23 70       	andi	r18, 0x03	; 3
    11c4:	20 64       	ori	r18, 0x40	; 64
    11c6:	91 81       	ldd	r25, Z+1	; 0x01
    11c8:	30 e8       	ldi	r19, 0x80	; 128
    11ca:	93 9f       	mul	r25, r19
    11cc:	d0 01       	movw	r26, r0
    11ce:	11 24       	eor	r1, r1
    11d0:	2a 2b       	or	r18, r26
    11d2:	92 81       	ldd	r25, Z+2	; 0x02
    11d4:	40 e2       	ldi	r20, 0x20	; 32
    11d6:	94 9f       	mul	r25, r20
    11d8:	b0 01       	movw	r22, r0
    11da:	11 24       	eor	r1, r1
    11dc:	26 2b       	or	r18, r22
    11de:	90 81       	ld	r25, Z
    11e0:	80 e1       	ldi	r24, 0x10	; 16
    11e2:	98 9f       	mul	r25, r24
    11e4:	a0 01       	movw	r20, r0
    11e6:	11 24       	eor	r1, r1
    11e8:	82 2f       	mov	r24, r18
    11ea:	84 2b       	or	r24, r20
    11ec:	93 81       	ldd	r25, Z+3	; 0x03
    11ee:	48 e0       	ldi	r20, 0x08	; 8
    11f0:	94 9f       	mul	r25, r20
    11f2:	90 01       	movw	r18, r0
    11f4:	11 24       	eor	r1, r1
    11f6:	28 2b       	or	r18, r24
    11f8:	94 81       	ldd	r25, Z+4	; 0x04
    11fa:	34 e0       	ldi	r19, 0x04	; 4
    11fc:	93 9f       	mul	r25, r19
    11fe:	c0 01       	movw	r24, r0
    1200:	11 24       	eor	r1, r1
    1202:	82 2b       	or	r24, r18
    1204:	8c bd       	out	0x2c, r24	; 44
    1206:	85 81       	ldd	r24, Z+5	; 0x05
    1208:	82 fb       	bst	r24, 2
    120a:	88 27       	eor	r24, r24
    120c:	80 f9       	bld	r24, 0
    120e:	8d bd       	out	0x2d, r24	; 45
    1210:	08 95       	ret

00001212 <_ZN14System_TypeDef9GPIO_InitEv>:
    1212:	81 e1       	ldi	r24, 0x11	; 17
    1214:	85 b9       	out	0x05, r24	; 5
    1216:	8e e2       	ldi	r24, 0x2E	; 46
    1218:	84 b9       	out	0x04, r24	; 4
    121a:	8f e0       	ldi	r24, 0x0F	; 15
    121c:	88 b9       	out	0x08, r24	; 8
    121e:	17 b8       	out	0x07, r1	; 7
    1220:	8d ef       	ldi	r24, 0xFD	; 253
    1222:	8b b9       	out	0x0b, r24	; 11
    1224:	82 e0       	ldi	r24, 0x02	; 2
    1226:	8a b9       	out	0x0a, r24	; 10
    1228:	08 95       	ret

0000122a <_ZN14System_TypeDef8I2C_InitEv>:
    122a:	cf 93       	push	r28
    122c:	df 93       	push	r29
    122e:	cd b7       	in	r28, 0x3d	; 61
    1230:	de b7       	in	r29, 0x3e	; 62
    1232:	2b 97       	sbiw	r28, 0x0b	; 11
    1234:	0f b6       	in	r0, 0x3f	; 63
    1236:	f8 94       	cli
    1238:	de bf       	out	0x3e, r29	; 62
    123a:	0f be       	out	0x3f, r0	; 63
    123c:	cd bf       	out	0x3d, r28	; 61
    123e:	80 e0       	ldi	r24, 0x00	; 0
    1240:	94 e2       	ldi	r25, 0x24	; 36
    1242:	a4 ef       	ldi	r26, 0xF4	; 244
    1244:	b0 e0       	ldi	r27, 0x00	; 0
    1246:	89 83       	std	Y+1, r24	; 0x01
    1248:	9a 83       	std	Y+2, r25	; 0x02
    124a:	ab 83       	std	Y+3, r26	; 0x03
    124c:	bc 83       	std	Y+4, r27	; 0x04
    124e:	1a 86       	std	Y+10, r1	; 0x0a
    1250:	1b 86       	std	Y+11, r1	; 0x0b
    1252:	8e ef       	ldi	r24, 0xFE	; 254
    1254:	89 87       	std	Y+9, r24	; 0x09
    1256:	80 e8       	ldi	r24, 0x80	; 128
    1258:	9a e1       	ldi	r25, 0x1A	; 26
    125a:	a6 e0       	ldi	r26, 0x06	; 6
    125c:	b0 e0       	ldi	r27, 0x00	; 0
    125e:	8d 83       	std	Y+5, r24	; 0x05
    1260:	9e 83       	std	Y+6, r25	; 0x06
    1262:	af 83       	std	Y+7, r26	; 0x07
    1264:	b8 87       	std	Y+8, r27	; 0x08
    1266:	be 01       	movw	r22, r28
    1268:	6f 5f       	subi	r22, 0xFF	; 255
    126a:	7f 4f       	sbci	r23, 0xFF	; 255
    126c:	83 eb       	ldi	r24, 0xB3	; 179
    126e:	91 e0       	ldi	r25, 0x01	; 1
    1270:	0e 94 f8 02 	call	0x5f0	; 0x5f0 <_ZN9I2CPeriph4InitEP14I2CInitTypeDef>
    1274:	2b 96       	adiw	r28, 0x0b	; 11
    1276:	0f b6       	in	r0, 0x3f	; 63
    1278:	f8 94       	cli
    127a:	de bf       	out	0x3e, r29	; 62
    127c:	0f be       	out	0x3f, r0	; 63
    127e:	cd bf       	out	0x3d, r28	; 61
    1280:	df 91       	pop	r29
    1282:	cf 91       	pop	r28
    1284:	08 95       	ret

00001286 <_ZN14System_TypeDef8SPI_InitEv>:
    1286:	cf 93       	push	r28
    1288:	df 93       	push	r29
    128a:	00 d0       	rcall	.+0      	; 0x128c <_ZN14System_TypeDef8SPI_InitEv+0x6>
    128c:	00 d0       	rcall	.+0      	; 0x128e <_ZN14System_TypeDef8SPI_InitEv+0x8>
    128e:	00 d0       	rcall	.+0      	; 0x1290 <_ZN14System_TypeDef8SPI_InitEv+0xa>
    1290:	cd b7       	in	r28, 0x3d	; 61
    1292:	de b7       	in	r29, 0x3e	; 62
    1294:	1d 82       	std	Y+5, r1	; 0x05
    1296:	1c 82       	std	Y+4, r1	; 0x04
    1298:	1b 82       	std	Y+3, r1	; 0x03
    129a:	1a 82       	std	Y+2, r1	; 0x02
    129c:	81 e0       	ldi	r24, 0x01	; 1
    129e:	89 83       	std	Y+1, r24	; 0x01
    12a0:	86 e0       	ldi	r24, 0x06	; 6
    12a2:	8e 83       	std	Y+6, r24	; 0x06
    12a4:	be 01       	movw	r22, r28
    12a6:	6f 5f       	subi	r22, 0xFF	; 255
    12a8:	7f 4f       	sbci	r23, 0xFF	; 255
    12aa:	81 eb       	ldi	r24, 0xB1	; 177
    12ac:	91 e0       	ldi	r25, 0x01	; 1
    12ae:	0e 94 df 08 	call	0x11be	; 0x11be <_ZN9SPIPeriph4InitEP14SPIInitTypeDef>
    12b2:	26 96       	adiw	r28, 0x06	; 6
    12b4:	0f b6       	in	r0, 0x3f	; 63
    12b6:	f8 94       	cli
    12b8:	de bf       	out	0x3e, r29	; 62
    12ba:	0f be       	out	0x3f, r0	; 63
    12bc:	cd bf       	out	0x3d, r28	; 61
    12be:	df 91       	pop	r29
    12c0:	cf 91       	pop	r28
    12c2:	08 95       	ret

000012c4 <_ZN14System_TypeDef10Timer_InitEv>:
    12c4:	14 bc       	out	0x24, r1	; 36
    12c6:	83 e0       	ldi	r24, 0x03	; 3
    12c8:	85 bd       	out	0x25, r24	; 37
    12ca:	82 e0       	ldi	r24, 0x02	; 2
    12cc:	80 93 6e 00 	sts	0x006E, r24	; 0x80006e <__DATA_REGION_ORIGIN__+0xe>
    12d0:	8a ef       	ldi	r24, 0xFA	; 250
    12d2:	87 bd       	out	0x27, r24	; 39
    12d4:	08 95       	ret

000012d6 <_ZN14System_TypeDef4InitEv>:
    12d6:	cf 93       	push	r28
    12d8:	df 93       	push	r29
    12da:	ec 01       	movw	r28, r24
    12dc:	0e 94 09 09 	call	0x1212	; 0x1212 <_ZN14System_TypeDef9GPIO_InitEv>
    12e0:	ce 01       	movw	r24, r28
    12e2:	0e 94 15 09 	call	0x122a	; 0x122a <_ZN14System_TypeDef8I2C_InitEv>
    12e6:	ce 01       	movw	r24, r28
    12e8:	0e 94 43 09 	call	0x1286	; 0x1286 <_ZN14System_TypeDef8SPI_InitEv>
    12ec:	ce 01       	movw	r24, r28
    12ee:	0e 94 62 09 	call	0x12c4	; 0x12c4 <_ZN14System_TypeDef10Timer_InitEv>
    12f2:	78 94       	sei
    12f4:	df 91       	pop	r29
    12f6:	cf 91       	pop	r28
    12f8:	08 95       	ret

000012fa <_ZN14System_TypeDef5TicksEv>:
    12fa:	f8 94       	cli
    12fc:	60 91 13 02 	lds	r22, 0x0213	; 0x800213 <_ticks>
    1300:	70 91 14 02 	lds	r23, 0x0214	; 0x800214 <_ticks+0x1>
    1304:	80 91 15 02 	lds	r24, 0x0215	; 0x800215 <_ticks+0x2>
    1308:	90 91 16 02 	lds	r25, 0x0216	; 0x800216 <_ticks+0x3>
    130c:	78 94       	sei
    130e:	08 95       	ret

00001310 <_GLOBAL__sub_I_i2c>:
    1310:	e3 eb       	ldi	r30, 0xB3	; 179
    1312:	f1 e0       	ldi	r31, 0x01	; 1
    1314:	86 e0       	ldi	r24, 0x06	; 6
    1316:	91 e0       	ldi	r25, 0x01	; 1
    1318:	91 83       	std	Z+1, r25	; 0x01
    131a:	80 83       	st	Z, r24
    131c:	82 e2       	ldi	r24, 0x22	; 34
    131e:	91 e0       	ldi	r25, 0x01	; 1
    1320:	90 93 b2 01 	sts	0x01B2, r25	; 0x8001b2 <spi+0x1>
    1324:	80 93 b1 01 	sts	0x01B1, r24	; 0x8001b1 <spi>
    1328:	f0 93 b0 01 	sts	0x01B0, r31	; 0x8001b0 <rtc+0x1>
    132c:	e0 93 af 01 	sts	0x01AF, r30	; 0x8001af <rtc>
    1330:	08 95       	ret

00001332 <_ZN7MAX72195PrintEPKc>:
    1332:	ef 92       	push	r14
    1334:	ff 92       	push	r15
    1336:	0f 93       	push	r16
    1338:	1f 93       	push	r17
    133a:	cf 93       	push	r28
    133c:	8c 01       	movw	r16, r24
    133e:	7b 01       	movw	r14, r22
    1340:	c0 e0       	ldi	r28, 0x00	; 0
    1342:	f7 01       	movw	r30, r14
    1344:	ec 0f       	add	r30, r28
    1346:	f1 1d       	adc	r31, r1
    1348:	60 81       	ld	r22, Z
    134a:	66 23       	and	r22, r22
    134c:	29 f0       	breq	.+10     	; 0x1358 <_ZN7MAX72195PrintEPKc+0x26>
    134e:	cf 5f       	subi	r28, 0xFF	; 255
    1350:	c8 01       	movw	r24, r16
    1352:	0e 94 3d 07 	call	0xe7a	; 0xe7a <_ZN7MAX72195PrintEc>
    1356:	f5 cf       	rjmp	.-22     	; 0x1342 <_ZN7MAX72195PrintEPKc+0x10>
    1358:	cf 91       	pop	r28
    135a:	1f 91       	pop	r17
    135c:	0f 91       	pop	r16
    135e:	ff 90       	pop	r15
    1360:	ef 90       	pop	r14
    1362:	08 95       	ret

00001364 <_ZN21UserInterface_TypeDef4InitEv>:
    1364:	87 e0       	ldi	r24, 0x07	; 7
    1366:	92 e0       	ldi	r25, 0x02	; 2
    1368:	0e 94 c6 06 	call	0xd8c	; 0xd8c <_ZN7MAX72194InitEv>
    136c:	86 ee       	ldi	r24, 0xE6	; 230
    136e:	91 e0       	ldi	r25, 0x01	; 1
    1370:	90 93 0e 02 	sts	0x020E, r25	; 0x80020e <disp+0x7>
    1374:	80 93 0d 02 	sts	0x020D, r24	; 0x80020d <disp+0x6>
    1378:	08 95       	ret

0000137a <_ZN21UserInterface_TypeDef11DisplayTimeEhh>:
    137a:	26 2f       	mov	r18, r22
    137c:	30 91 d1 01 	lds	r19, 0x01D1	; 0x8001d1 <timeNow+0x2>
    1380:	83 2f       	mov	r24, r19
    1382:	6a e0       	ldi	r22, 0x0A	; 10
    1384:	0e 94 1f 0e 	call	0x1c3e	; 0x1c3e <__udivmodqi4>
    1388:	91 30       	cpi	r25, 0x01	; 1
    138a:	09 f4       	brne	.+2      	; 0x138e <_ZN21UserInterface_TypeDef11DisplayTimeEhh+0x14>
    138c:	2f 5f       	subi	r18, 0xFF	; 255
    138e:	86 ef       	ldi	r24, 0xF6	; 246
    1390:	83 0f       	add	r24, r19
    1392:	8a 30       	cpi	r24, 0x0A	; 10
    1394:	10 f4       	brcc	.+4      	; 0x139a <_ZN21UserInterface_TypeDef11DisplayTimeEhh+0x20>
    1396:	2f 5f       	subi	r18, 0xFF	; 255
    1398:	03 c0       	rjmp	.+6      	; 0x13a0 <_ZN21UserInterface_TypeDef11DisplayTimeEhh+0x26>
    139a:	3a 30       	cpi	r19, 0x0A	; 10
    139c:	08 f4       	brcc	.+2      	; 0x13a0 <_ZN21UserInterface_TypeDef11DisplayTimeEhh+0x26>
    139e:	2c 5f       	subi	r18, 0xFC	; 252
    13a0:	50 91 d0 01 	lds	r21, 0x01D0	; 0x8001d0 <timeNow+0x1>
    13a4:	85 2f       	mov	r24, r21
    13a6:	6a e0       	ldi	r22, 0x0A	; 10
    13a8:	0e 94 1f 0e 	call	0x1c3e	; 0x1c3e <__udivmodqi4>
    13ac:	91 30       	cpi	r25, 0x01	; 1
    13ae:	09 f4       	brne	.+2      	; 0x13b2 <_ZN21UserInterface_TypeDef11DisplayTimeEhh+0x38>
    13b0:	2f 5f       	subi	r18, 0xFF	; 255
    13b2:	86 ef       	ldi	r24, 0xF6	; 246
    13b4:	85 0f       	add	r24, r21
    13b6:	8a 30       	cpi	r24, 0x0A	; 10
    13b8:	08 f4       	brcc	.+2      	; 0x13bc <_ZN21UserInterface_TypeDef11DisplayTimeEhh+0x42>
    13ba:	2f 5f       	subi	r18, 0xFF	; 255
    13bc:	62 2f       	mov	r22, r18
    13be:	70 e0       	ldi	r23, 0x00	; 0
    13c0:	6d 5f       	subi	r22, 0xFD	; 253
    13c2:	7f 4f       	sbci	r23, 0xFF	; 255
    13c4:	70 93 10 02 	sts	0x0210, r23	; 0x800210 <disp+0x9>
    13c8:	60 93 0f 02 	sts	0x020F, r22	; 0x80020f <disp+0x8>
    13cc:	40 93 11 02 	sts	0x0211, r20	; 0x800211 <disp+0xa>
    13d0:	80 91 cf 01 	lds	r24, 0x01CF	; 0x8001cf <timeNow>
    13d4:	80 fd       	sbrc	r24, 0
    13d6:	02 c0       	rjmp	.+4      	; 0x13dc <_ZN21UserInterface_TypeDef11DisplayTimeEhh+0x62>
    13d8:	80 e2       	ldi	r24, 0x20	; 32
    13da:	01 c0       	rjmp	.+2      	; 0x13de <_ZN21UserInterface_TypeDef11DisplayTimeEhh+0x64>
    13dc:	8a e3       	ldi	r24, 0x3A	; 58
    13de:	1f 92       	push	r1
    13e0:	5f 93       	push	r21
    13e2:	1f 92       	push	r1
    13e4:	8f 93       	push	r24
    13e6:	1f 92       	push	r1
    13e8:	3f 93       	push	r19
    13ea:	8a e2       	ldi	r24, 0x2A	; 42
    13ec:	91 e0       	ldi	r25, 0x01	; 1
    13ee:	9f 93       	push	r25
    13f0:	8f 93       	push	r24
    13f2:	82 ed       	ldi	r24, 0xD2	; 210
    13f4:	91 e0       	ldi	r25, 0x01	; 1
    13f6:	9f 93       	push	r25
    13f8:	8f 93       	push	r24
    13fa:	0e 94 75 0e 	call	0x1cea	; 0x1cea <sprintf>
    13fe:	62 ed       	ldi	r22, 0xD2	; 210
    1400:	71 e0       	ldi	r23, 0x01	; 1
    1402:	87 e0       	ldi	r24, 0x07	; 7
    1404:	92 e0       	ldi	r25, 0x02	; 2
    1406:	0e 94 99 09 	call	0x1332	; 0x1332 <_ZN7MAX72195PrintEPKc>
    140a:	8d b7       	in	r24, 0x3d	; 61
    140c:	9e b7       	in	r25, 0x3e	; 62
    140e:	0a 96       	adiw	r24, 0x0a	; 10
    1410:	0f b6       	in	r0, 0x3f	; 63
    1412:	f8 94       	cli
    1414:	9e bf       	out	0x3e, r25	; 62
    1416:	0f be       	out	0x3f, r0	; 63
    1418:	8d bf       	out	0x3d, r24	; 61
    141a:	60 e0       	ldi	r22, 0x00	; 0
    141c:	87 e0       	ldi	r24, 0x07	; 7
    141e:	92 e0       	ldi	r25, 0x02	; 2
    1420:	0c 94 d5 07 	jmp	0xfaa	; 0xfaa <_ZN7MAX721910DrawBufferEh>

00001424 <_ZN21UserInterface_TypeDef10DisplayDayEhh>:
    1424:	e7 e0       	ldi	r30, 0x07	; 7
    1426:	f2 e0       	ldi	r31, 0x02	; 2
    1428:	70 e0       	ldi	r23, 0x00	; 0
    142a:	68 5f       	subi	r22, 0xF8	; 248
    142c:	7f 4f       	sbci	r23, 0xFF	; 255
    142e:	71 87       	std	Z+9, r23	; 0x09
    1430:	60 87       	std	Z+8, r22	; 0x08
    1432:	42 87       	std	Z+10, r20	; 0x0a
    1434:	80 91 cb 01 	lds	r24, 0x01CB	; 0x8001cb <dateNow>
    1438:	24 e0       	ldi	r18, 0x04	; 4
    143a:	82 9f       	mul	r24, r18
    143c:	c0 01       	movw	r24, r0
    143e:	11 24       	eor	r1, r1
    1440:	8e 57       	subi	r24, 0x7E	; 126
    1442:	9e 4f       	sbci	r25, 0xFE	; 254
    1444:	9f 93       	push	r25
    1446:	8f 93       	push	r24
    1448:	87 e3       	ldi	r24, 0x37	; 55
    144a:	91 e0       	ldi	r25, 0x01	; 1
    144c:	9f 93       	push	r25
    144e:	8f 93       	push	r24
    1450:	82 ed       	ldi	r24, 0xD2	; 210
    1452:	91 e0       	ldi	r25, 0x01	; 1
    1454:	9f 93       	push	r25
    1456:	8f 93       	push	r24
    1458:	0e 94 75 0e 	call	0x1cea	; 0x1cea <sprintf>
    145c:	62 ed       	ldi	r22, 0xD2	; 210
    145e:	71 e0       	ldi	r23, 0x01	; 1
    1460:	87 e0       	ldi	r24, 0x07	; 7
    1462:	92 e0       	ldi	r25, 0x02	; 2
    1464:	0e 94 99 09 	call	0x1332	; 0x1332 <_ZN7MAX72195PrintEPKc>
    1468:	0f 90       	pop	r0
    146a:	0f 90       	pop	r0
    146c:	0f 90       	pop	r0
    146e:	0f 90       	pop	r0
    1470:	0f 90       	pop	r0
    1472:	0f 90       	pop	r0
    1474:	60 e0       	ldi	r22, 0x00	; 0
    1476:	87 e0       	ldi	r24, 0x07	; 7
    1478:	92 e0       	ldi	r25, 0x02	; 2
    147a:	0c 94 d5 07 	jmp	0xfaa	; 0xfaa <_ZN7MAX721910DrawBufferEh>

0000147e <_ZN21UserInterface_TypeDef11DisplayDateEhh>:
    147e:	26 2f       	mov	r18, r22
    1480:	30 91 cc 01 	lds	r19, 0x01CC	; 0x8001cc <dateNow+0x1>
    1484:	83 2f       	mov	r24, r19
    1486:	6a e0       	ldi	r22, 0x0A	; 10
    1488:	0e 94 1f 0e 	call	0x1c3e	; 0x1c3e <__udivmodqi4>
    148c:	91 30       	cpi	r25, 0x01	; 1
    148e:	09 f4       	brne	.+2      	; 0x1492 <_ZN21UserInterface_TypeDef11DisplayDateEhh+0x14>
    1490:	2f 5f       	subi	r18, 0xFF	; 255
    1492:	86 ef       	ldi	r24, 0xF6	; 246
    1494:	83 0f       	add	r24, r19
    1496:	8a 30       	cpi	r24, 0x0A	; 10
    1498:	10 f4       	brcc	.+4      	; 0x149e <_ZN21UserInterface_TypeDef11DisplayDateEhh+0x20>
    149a:	2f 5f       	subi	r18, 0xFF	; 255
    149c:	03 c0       	rjmp	.+6      	; 0x14a4 <_ZN21UserInterface_TypeDef11DisplayDateEhh+0x26>
    149e:	3a 30       	cpi	r19, 0x0A	; 10
    14a0:	08 f4       	brcc	.+2      	; 0x14a4 <_ZN21UserInterface_TypeDef11DisplayDateEhh+0x26>
    14a2:	2c 5f       	subi	r18, 0xFC	; 252
    14a4:	62 2f       	mov	r22, r18
    14a6:	70 e0       	ldi	r23, 0x00	; 0
    14a8:	6e 5f       	subi	r22, 0xFE	; 254
    14aa:	7f 4f       	sbci	r23, 0xFF	; 255
    14ac:	70 93 10 02 	sts	0x0210, r23	; 0x800210 <disp+0x9>
    14b0:	60 93 0f 02 	sts	0x020F, r22	; 0x80020f <disp+0x8>
    14b4:	40 93 11 02 	sts	0x0211, r20	; 0x800211 <disp+0xa>
    14b8:	80 91 cd 01 	lds	r24, 0x01CD	; 0x8001cd <dateNow+0x2>
    14bc:	24 e0       	ldi	r18, 0x04	; 4
    14be:	82 9f       	mul	r24, r18
    14c0:	c0 01       	movw	r24, r0
    14c2:	11 24       	eor	r1, r1
    14c4:	8e 5a       	subi	r24, 0xAE	; 174
    14c6:	9e 4f       	sbci	r25, 0xFE	; 254
    14c8:	9f 93       	push	r25
    14ca:	8f 93       	push	r24
    14cc:	1f 92       	push	r1
    14ce:	3f 93       	push	r19
    14d0:	84 e3       	ldi	r24, 0x34	; 52
    14d2:	91 e0       	ldi	r25, 0x01	; 1
    14d4:	9f 93       	push	r25
    14d6:	8f 93       	push	r24
    14d8:	82 ed       	ldi	r24, 0xD2	; 210
    14da:	91 e0       	ldi	r25, 0x01	; 1
    14dc:	9f 93       	push	r25
    14de:	8f 93       	push	r24
    14e0:	0e 94 75 0e 	call	0x1cea	; 0x1cea <sprintf>
    14e4:	62 ed       	ldi	r22, 0xD2	; 210
    14e6:	71 e0       	ldi	r23, 0x01	; 1
    14e8:	87 e0       	ldi	r24, 0x07	; 7
    14ea:	92 e0       	ldi	r25, 0x02	; 2
    14ec:	0e 94 99 09 	call	0x1332	; 0x1332 <_ZN7MAX72195PrintEPKc>
    14f0:	8d b7       	in	r24, 0x3d	; 61
    14f2:	9e b7       	in	r25, 0x3e	; 62
    14f4:	08 96       	adiw	r24, 0x08	; 8
    14f6:	0f b6       	in	r0, 0x3f	; 63
    14f8:	f8 94       	cli
    14fa:	9e bf       	out	0x3e, r25	; 62
    14fc:	0f be       	out	0x3f, r0	; 63
    14fe:	8d bf       	out	0x3d, r24	; 61
    1500:	60 e0       	ldi	r22, 0x00	; 0
    1502:	87 e0       	ldi	r24, 0x07	; 7
    1504:	92 e0       	ldi	r25, 0x02	; 2
    1506:	0c 94 d5 07 	jmp	0xfaa	; 0xfaa <_ZN7MAX721910DrawBufferEh>

0000150a <_ZN21UserInterface_TypeDef11DisplayYearEhh>:
    150a:	26 2f       	mov	r18, r22
    150c:	30 91 ce 01 	lds	r19, 0x01CE	; 0x8001ce <dateNow+0x3>
    1510:	83 2f       	mov	r24, r19
    1512:	6a e0       	ldi	r22, 0x0A	; 10
    1514:	0e 94 1f 0e 	call	0x1c3e	; 0x1c3e <__udivmodqi4>
    1518:	91 30       	cpi	r25, 0x01	; 1
    151a:	09 f4       	brne	.+2      	; 0x151e <_ZN21UserInterface_TypeDef11DisplayYearEhh+0x14>
    151c:	2f 5f       	subi	r18, 0xFF	; 255
    151e:	86 ef       	ldi	r24, 0xF6	; 246
    1520:	83 0f       	add	r24, r19
    1522:	8a 30       	cpi	r24, 0x0A	; 10
    1524:	08 f4       	brcc	.+2      	; 0x1528 <_ZN21UserInterface_TypeDef11DisplayYearEhh+0x1e>
    1526:	2f 5f       	subi	r18, 0xFF	; 255
    1528:	62 2f       	mov	r22, r18
    152a:	70 e0       	ldi	r23, 0x00	; 0
    152c:	6b 5f       	subi	r22, 0xFB	; 251
    152e:	7f 4f       	sbci	r23, 0xFF	; 255
    1530:	70 93 10 02 	sts	0x0210, r23	; 0x800210 <disp+0x9>
    1534:	60 93 0f 02 	sts	0x020F, r22	; 0x80020f <disp+0x8>
    1538:	40 93 11 02 	sts	0x0211, r20	; 0x800211 <disp+0xa>
    153c:	1f 92       	push	r1
    153e:	3f 93       	push	r19
    1540:	8b e3       	ldi	r24, 0x3B	; 59
    1542:	91 e0       	ldi	r25, 0x01	; 1
    1544:	9f 93       	push	r25
    1546:	8f 93       	push	r24
    1548:	82 ed       	ldi	r24, 0xD2	; 210
    154a:	91 e0       	ldi	r25, 0x01	; 1
    154c:	9f 93       	push	r25
    154e:	8f 93       	push	r24
    1550:	0e 94 75 0e 	call	0x1cea	; 0x1cea <sprintf>
    1554:	62 ed       	ldi	r22, 0xD2	; 210
    1556:	71 e0       	ldi	r23, 0x01	; 1
    1558:	87 e0       	ldi	r24, 0x07	; 7
    155a:	92 e0       	ldi	r25, 0x02	; 2
    155c:	0e 94 99 09 	call	0x1332	; 0x1332 <_ZN7MAX72195PrintEPKc>
    1560:	0f 90       	pop	r0
    1562:	0f 90       	pop	r0
    1564:	0f 90       	pop	r0
    1566:	0f 90       	pop	r0
    1568:	0f 90       	pop	r0
    156a:	0f 90       	pop	r0
    156c:	60 e0       	ldi	r22, 0x00	; 0
    156e:	87 e0       	ldi	r24, 0x07	; 7
    1570:	92 e0       	ldi	r25, 0x02	; 2
    1572:	0c 94 d5 07 	jmp	0xfaa	; 0xfaa <_ZN7MAX721910DrawBufferEh>

00001576 <_ZN21UserInterface_TypeDef7HandlerEv>:
    1576:	ef 92       	push	r14
    1578:	ff 92       	push	r15
    157a:	0f 93       	push	r16
    157c:	1f 93       	push	r17
    157e:	cf 93       	push	r28
    1580:	7c 01       	movw	r14, r24
    1582:	8e ea       	ldi	r24, 0xAE	; 174
    1584:	91 e0       	ldi	r25, 0x01	; 1
    1586:	0e 94 7d 09 	call	0x12fa	; 0x12fa <_ZN14System_TypeDef5TicksEv>
    158a:	00 91 c3 01 	lds	r16, 0x01C3	; 0x8001c3 <updateTimer>
    158e:	10 91 c4 01 	lds	r17, 0x01C4	; 0x8001c4 <updateTimer+0x1>
    1592:	20 91 c5 01 	lds	r18, 0x01C5	; 0x8001c5 <updateTimer+0x2>
    1596:	30 91 c6 01 	lds	r19, 0x01C6	; 0x8001c6 <updateTimer+0x3>
    159a:	dc 01       	movw	r26, r24
    159c:	cb 01       	movw	r24, r22
    159e:	80 1b       	sub	r24, r16
    15a0:	91 0b       	sbc	r25, r17
    15a2:	a2 0b       	sbc	r26, r18
    15a4:	b3 0b       	sbc	r27, r19
    15a6:	84 36       	cpi	r24, 0x64	; 100
    15a8:	91 05       	cpc	r25, r1
    15aa:	a1 05       	cpc	r26, r1
    15ac:	b1 05       	cpc	r27, r1
    15ae:	c8 f1       	brcs	.+114    	; 0x1622 <_ZN21UserInterface_TypeDef7HandlerEv+0xac>
    15b0:	21 ed       	ldi	r18, 0xD1	; 209
    15b2:	31 e0       	ldi	r19, 0x01	; 1
    15b4:	40 ed       	ldi	r20, 0xD0	; 208
    15b6:	51 e0       	ldi	r21, 0x01	; 1
    15b8:	6f ec       	ldi	r22, 0xCF	; 207
    15ba:	71 e0       	ldi	r23, 0x01	; 1
    15bc:	8f ea       	ldi	r24, 0xAF	; 175
    15be:	91 e0       	ldi	r25, 0x01	; 1
    15c0:	0e 94 03 02 	call	0x406	; 0x406 <_ZN6DS32317GetTimeEPhS0_S0_>
    15c4:	0e ec       	ldi	r16, 0xCE	; 206
    15c6:	11 e0       	ldi	r17, 0x01	; 1
    15c8:	2d ec       	ldi	r18, 0xCD	; 205
    15ca:	31 e0       	ldi	r19, 0x01	; 1
    15cc:	4c ec       	ldi	r20, 0xCC	; 204
    15ce:	51 e0       	ldi	r21, 0x01	; 1
    15d0:	6b ec       	ldi	r22, 0xCB	; 203
    15d2:	71 e0       	ldi	r23, 0x01	; 1
    15d4:	8f ea       	ldi	r24, 0xAF	; 175
    15d6:	91 e0       	ldi	r25, 0x01	; 1
    15d8:	0e 94 4f 02 	call	0x49e	; 0x49e <_ZN6DS32317GetDateEPhS0_S0_S0_>
    15dc:	60 91 ac 01 	lds	r22, 0x01AC	; 0x8001ac <Input+0x1>
    15e0:	70 91 ad 01 	lds	r23, 0x01AD	; 0x8001ad <Input+0x2>
    15e4:	80 e0       	ldi	r24, 0x00	; 0
    15e6:	90 e0       	ldi	r25, 0x00	; 0
    15e8:	0e 94 24 0d 	call	0x1a48	; 0x1a48 <__floatunsisf>
    15ec:	2a e0       	ldi	r18, 0x0A	; 10
    15ee:	37 ed       	ldi	r19, 0xD7	; 215
    15f0:	43 ea       	ldi	r20, 0xA3	; 163
    15f2:	5d e3       	ldi	r21, 0x3D	; 61
    15f4:	0e 94 8a 0d 	call	0x1b14	; 0x1b14 <__mulsf3>
    15f8:	0e 94 f5 0c 	call	0x19ea	; 0x19ea <__fixunssfsi>
    15fc:	26 2f       	mov	r18, r22
    15fe:	4a e0       	ldi	r20, 0x0A	; 10
    1600:	65 e0       	ldi	r22, 0x05	; 5
    1602:	87 e0       	ldi	r24, 0x07	; 7
    1604:	92 e0       	ldi	r25, 0x02	; 2
    1606:	0e 94 5f 06 	call	0xcbe	; 0xcbe <_ZN7MAX72195WriteEhhh>
    160a:	8e ea       	ldi	r24, 0xAE	; 174
    160c:	91 e0       	ldi	r25, 0x01	; 1
    160e:	0e 94 7d 09 	call	0x12fa	; 0x12fa <_ZN14System_TypeDef5TicksEv>
    1612:	60 93 c3 01 	sts	0x01C3, r22	; 0x8001c3 <updateTimer>
    1616:	70 93 c4 01 	sts	0x01C4, r23	; 0x8001c4 <updateTimer+0x1>
    161a:	80 93 c5 01 	sts	0x01C5, r24	; 0x8001c5 <updateTimer+0x2>
    161e:	90 93 c6 01 	sts	0x01C6, r25	; 0x8001c6 <updateTimer+0x3>
    1622:	80 91 ab 01 	lds	r24, 0x01AB	; 0x8001ab <Input>
    1626:	28 2f       	mov	r18, r24
    1628:	21 70       	andi	r18, 0x01	; 1
    162a:	80 fd       	sbrc	r24, 0
    162c:	06 c0       	rjmp	.+12     	; 0x163a <_ZN21UserInterface_TypeDef7HandlerEv+0xc4>
    162e:	81 fd       	sbrc	r24, 1
    1630:	04 c0       	rjmp	.+8      	; 0x163a <_ZN21UserInterface_TypeDef7HandlerEv+0xc4>
    1632:	82 fb       	bst	r24, 2
    1634:	cc 27       	eor	r28, r28
    1636:	c0 f9       	bld	r28, 0
    1638:	01 c0       	rjmp	.+2      	; 0x163c <_ZN21UserInterface_TypeDef7HandlerEv+0xc6>
    163a:	c1 e0       	ldi	r28, 0x01	; 1
    163c:	90 91 be 01 	lds	r25, 0x01BE	; 0x8001be <menu>
    1640:	92 30       	cpi	r25, 0x02	; 2
    1642:	b9 f0       	breq	.+46     	; 0x1672 <_ZN21UserInterface_TypeDef7HandlerEv+0xfc>
    1644:	28 f4       	brcc	.+10     	; 0x1650 <_ZN21UserInterface_TypeDef7HandlerEv+0xda>
    1646:	99 23       	and	r25, r25
    1648:	41 f0       	breq	.+16     	; 0x165a <_ZN21UserInterface_TypeDef7HandlerEv+0xe4>
    164a:	91 30       	cpi	r25, 0x01	; 1
    164c:	71 f0       	breq	.+28     	; 0x166a <_ZN21UserInterface_TypeDef7HandlerEv+0xf4>
    164e:	2a c0       	rjmp	.+84     	; 0x16a4 <_ZN21UserInterface_TypeDef7HandlerEv+0x12e>
    1650:	93 30       	cpi	r25, 0x03	; 3
    1652:	99 f0       	breq	.+38     	; 0x167a <_ZN21UserInterface_TypeDef7HandlerEv+0x104>
    1654:	94 30       	cpi	r25, 0x04	; 4
    1656:	f1 f0       	breq	.+60     	; 0x1694 <_ZN21UserInterface_TypeDef7HandlerEv+0x11e>
    1658:	25 c0       	rjmp	.+74     	; 0x16a4 <_ZN21UserInterface_TypeDef7HandlerEv+0x12e>
    165a:	22 23       	and	r18, r18
    165c:	19 f1       	breq	.+70     	; 0x16a4 <_ZN21UserInterface_TypeDef7HandlerEv+0x12e>
    165e:	81 e0       	ldi	r24, 0x01	; 1
    1660:	80 93 be 01 	sts	0x01BE, r24	; 0x8001be <menu>
    1664:	10 92 06 02 	sts	0x0206, r1	; 0x800206 <transition>
    1668:	1d c0       	rjmp	.+58     	; 0x16a4 <_ZN21UserInterface_TypeDef7HandlerEv+0x12e>
    166a:	22 23       	and	r18, r18
    166c:	69 f0       	breq	.+26     	; 0x1688 <_ZN21UserInterface_TypeDef7HandlerEv+0x112>
    166e:	92 e0       	ldi	r25, 0x02	; 2
    1670:	07 c0       	rjmp	.+14     	; 0x1680 <_ZN21UserInterface_TypeDef7HandlerEv+0x10a>
    1672:	22 23       	and	r18, r18
    1674:	49 f0       	breq	.+18     	; 0x1688 <_ZN21UserInterface_TypeDef7HandlerEv+0x112>
    1676:	93 e0       	ldi	r25, 0x03	; 3
    1678:	03 c0       	rjmp	.+6      	; 0x1680 <_ZN21UserInterface_TypeDef7HandlerEv+0x10a>
    167a:	22 23       	and	r18, r18
    167c:	29 f0       	breq	.+10     	; 0x1688 <_ZN21UserInterface_TypeDef7HandlerEv+0x112>
    167e:	94 e0       	ldi	r25, 0x04	; 4
    1680:	90 93 be 01 	sts	0x01BE, r25	; 0x8001be <menu>
    1684:	10 92 06 02 	sts	0x0206, r1	; 0x800206 <transition>
    1688:	81 ff       	sbrs	r24, 1
    168a:	0c c0       	rjmp	.+24     	; 0x16a4 <_ZN21UserInterface_TypeDef7HandlerEv+0x12e>
    168c:	80 91 be 01 	lds	r24, 0x01BE	; 0x8001be <menu>
    1690:	81 50       	subi	r24, 0x01	; 1
    1692:	03 c0       	rjmp	.+6      	; 0x169a <_ZN21UserInterface_TypeDef7HandlerEv+0x124>
    1694:	81 ff       	sbrs	r24, 1
    1696:	06 c0       	rjmp	.+12     	; 0x16a4 <_ZN21UserInterface_TypeDef7HandlerEv+0x12e>
    1698:	83 e0       	ldi	r24, 0x03	; 3
    169a:	80 93 be 01 	sts	0x01BE, r24	; 0x8001be <menu>
    169e:	81 e0       	ldi	r24, 0x01	; 1
    16a0:	80 93 06 02 	sts	0x0206, r24	; 0x800206 <transition>
    16a4:	80 91 cf 01 	lds	r24, 0x01CF	; 0x8001cf <timeNow>
    16a8:	90 91 bc 01 	lds	r25, 0x01BC	; 0x8001bc <lSeconds>
    16ac:	89 17       	cp	r24, r25
    16ae:	29 f1       	breq	.+74     	; 0x16fa <_ZN21UserInterface_TypeDef7HandlerEv+0x184>
    16b0:	92 ee       	ldi	r25, 0xE2	; 226
    16b2:	98 0f       	add	r25, r24
    16b4:	9a 30       	cpi	r25, 0x0A	; 10
    16b6:	10 f0       	brcs	.+4      	; 0x16bc <_ZN21UserInterface_TypeDef7HandlerEv+0x146>
    16b8:	8a 30       	cpi	r24, 0x0A	; 10
    16ba:	f8 f4       	brcc	.+62     	; 0x16fa <_ZN21UserInterface_TypeDef7HandlerEv+0x184>
    16bc:	80 93 bc 01 	sts	0x01BC, r24	; 0x8001bc <lSeconds>
    16c0:	6a e0       	ldi	r22, 0x0A	; 10
    16c2:	0e 94 1f 0e 	call	0x1c3e	; 0x1c3e <__udivmodqi4>
    16c6:	91 11       	cpse	r25, r1
    16c8:	04 c0       	rjmp	.+8      	; 0x16d2 <_ZN21UserInterface_TypeDef7HandlerEv+0x15c>
    16ca:	81 e0       	ldi	r24, 0x01	; 1
    16cc:	80 93 be 01 	sts	0x01BE, r24	; 0x8001be <menu>
    16d0:	05 c0       	rjmp	.+10     	; 0x16dc <_ZN21UserInterface_TypeDef7HandlerEv+0x166>
    16d2:	92 30       	cpi	r25, 0x02	; 2
    16d4:	31 f4       	brne	.+12     	; 0x16e2 <_ZN21UserInterface_TypeDef7HandlerEv+0x16c>
    16d6:	90 93 be 01 	sts	0x01BE, r25	; 0x8001be <menu>
    16da:	81 e0       	ldi	r24, 0x01	; 1
    16dc:	80 93 06 02 	sts	0x0206, r24	; 0x800206 <transition>
    16e0:	0c c0       	rjmp	.+24     	; 0x16fa <_ZN21UserInterface_TypeDef7HandlerEv+0x184>
    16e2:	94 30       	cpi	r25, 0x04	; 4
    16e4:	21 f4       	brne	.+8      	; 0x16ee <_ZN21UserInterface_TypeDef7HandlerEv+0x178>
    16e6:	83 e0       	ldi	r24, 0x03	; 3
    16e8:	80 93 be 01 	sts	0x01BE, r24	; 0x8001be <menu>
    16ec:	f6 cf       	rjmp	.-20     	; 0x16da <_ZN21UserInterface_TypeDef7HandlerEv+0x164>
    16ee:	96 30       	cpi	r25, 0x06	; 6
    16f0:	21 f4       	brne	.+8      	; 0x16fa <_ZN21UserInterface_TypeDef7HandlerEv+0x184>
    16f2:	10 92 be 01 	sts	0x01BE, r1	; 0x8001be <menu>
    16f6:	10 92 06 02 	sts	0x0206, r1	; 0x800206 <transition>
    16fa:	80 91 06 02 	lds	r24, 0x0206	; 0x800206 <transition>
    16fe:	82 30       	cpi	r24, 0x02	; 2
    1700:	09 f4       	brne	.+2      	; 0x1704 <_ZN21UserInterface_TypeDef7HandlerEv+0x18e>
    1702:	be c0       	rjmp	.+380    	; 0x1880 <_ZN21UserInterface_TypeDef7HandlerEv+0x30a>
    1704:	81 11       	cpse	r24, r1
    1706:	50 c0       	rjmp	.+160    	; 0x17a8 <_ZN21UserInterface_TypeDef7HandlerEv+0x232>
    1708:	90 91 bd 01 	lds	r25, 0x01BD	; 0x8001bd <dispMenu>
    170c:	80 91 be 01 	lds	r24, 0x01BE	; 0x8001be <menu>
    1710:	98 17       	cp	r25, r24
    1712:	79 f1       	breq	.+94     	; 0x1772 <_ZN21UserInterface_TypeDef7HandlerEv+0x1fc>
    1714:	8e ea       	ldi	r24, 0xAE	; 174
    1716:	91 e0       	ldi	r25, 0x01	; 1
    1718:	0e 94 7d 09 	call	0x12fa	; 0x12fa <_ZN14System_TypeDef5TicksEv>
    171c:	00 91 bf 01 	lds	r16, 0x01BF	; 0x8001bf <transitionTimer>
    1720:	10 91 c0 01 	lds	r17, 0x01C0	; 0x8001c0 <transitionTimer+0x1>
    1724:	20 91 c1 01 	lds	r18, 0x01C1	; 0x8001c1 <transitionTimer+0x2>
    1728:	30 91 c2 01 	lds	r19, 0x01C2	; 0x8001c2 <transitionTimer+0x3>
    172c:	dc 01       	movw	r26, r24
    172e:	cb 01       	movw	r24, r22
    1730:	80 1b       	sub	r24, r16
    1732:	91 0b       	sbc	r25, r17
    1734:	a2 0b       	sbc	r26, r18
    1736:	b3 0b       	sbc	r27, r19
    1738:	c2 97       	sbiw	r24, 0x32	; 50
    173a:	a1 05       	cpc	r26, r1
    173c:	b1 05       	cpc	r27, r1
    173e:	90 f0       	brcs	.+36     	; 0x1764 <_ZN21UserInterface_TypeDef7HandlerEv+0x1ee>
    1740:	80 91 bb 01 	lds	r24, 0x01BB	; 0x8001bb <yPos>
    1744:	8f 5f       	subi	r24, 0xFF	; 255
    1746:	80 93 bb 01 	sts	0x01BB, r24	; 0x8001bb <yPos>
    174a:	8e ea       	ldi	r24, 0xAE	; 174
    174c:	91 e0       	ldi	r25, 0x01	; 1
    174e:	0e 94 7d 09 	call	0x12fa	; 0x12fa <_ZN14System_TypeDef5TicksEv>
    1752:	60 93 bf 01 	sts	0x01BF, r22	; 0x8001bf <transitionTimer>
    1756:	70 93 c0 01 	sts	0x01C0, r23	; 0x8001c0 <transitionTimer+0x1>
    175a:	80 93 c1 01 	sts	0x01C1, r24	; 0x8001c1 <transitionTimer+0x2>
    175e:	90 93 c2 01 	sts	0x01C2, r25	; 0x8001c2 <transitionTimer+0x3>
    1762:	c1 e0       	ldi	r28, 0x01	; 1
    1764:	80 91 bb 01 	lds	r24, 0x01BB	; 0x8001bb <yPos>
    1768:	88 30       	cpi	r24, 0x08	; 8
    176a:	0c f4       	brge	.+2      	; 0x176e <_ZN21UserInterface_TypeDef7HandlerEv+0x1f8>
    176c:	89 c0       	rjmp	.+274    	; 0x1880 <_ZN21UserInterface_TypeDef7HandlerEv+0x30a>
    176e:	88 ef       	ldi	r24, 0xF8	; 248
    1770:	51 c0       	rjmp	.+162    	; 0x1814 <_ZN21UserInterface_TypeDef7HandlerEv+0x29e>
    1772:	8e ea       	ldi	r24, 0xAE	; 174
    1774:	91 e0       	ldi	r25, 0x01	; 1
    1776:	0e 94 7d 09 	call	0x12fa	; 0x12fa <_ZN14System_TypeDef5TicksEv>
    177a:	00 91 bf 01 	lds	r16, 0x01BF	; 0x8001bf <transitionTimer>
    177e:	10 91 c0 01 	lds	r17, 0x01C0	; 0x8001c0 <transitionTimer+0x1>
    1782:	20 91 c1 01 	lds	r18, 0x01C1	; 0x8001c1 <transitionTimer+0x2>
    1786:	30 91 c2 01 	lds	r19, 0x01C2	; 0x8001c2 <transitionTimer+0x3>
    178a:	dc 01       	movw	r26, r24
    178c:	cb 01       	movw	r24, r22
    178e:	80 1b       	sub	r24, r16
    1790:	91 0b       	sbc	r25, r17
    1792:	a2 0b       	sbc	r26, r18
    1794:	b3 0b       	sbc	r27, r19
    1796:	c2 97       	sbiw	r24, 0x32	; 50
    1798:	a1 05       	cpc	r26, r1
    179a:	b1 05       	cpc	r27, r1
    179c:	08 f4       	brcc	.+2      	; 0x17a0 <_ZN21UserInterface_TypeDef7HandlerEv+0x22a>
    179e:	69 c0       	rjmp	.+210    	; 0x1872 <_ZN21UserInterface_TypeDef7HandlerEv+0x2fc>
    17a0:	80 91 bb 01 	lds	r24, 0x01BB	; 0x8001bb <yPos>
    17a4:	8f 5f       	subi	r24, 0xFF	; 255
    17a6:	56 c0       	rjmp	.+172    	; 0x1854 <_ZN21UserInterface_TypeDef7HandlerEv+0x2de>
    17a8:	81 30       	cpi	r24, 0x01	; 1
    17aa:	09 f0       	breq	.+2      	; 0x17ae <_ZN21UserInterface_TypeDef7HandlerEv+0x238>
    17ac:	69 c0       	rjmp	.+210    	; 0x1880 <_ZN21UserInterface_TypeDef7HandlerEv+0x30a>
    17ae:	90 91 bd 01 	lds	r25, 0x01BD	; 0x8001bd <dispMenu>
    17b2:	80 91 be 01 	lds	r24, 0x01BE	; 0x8001be <menu>
    17b6:	98 17       	cp	r25, r24
    17b8:	a1 f1       	breq	.+104    	; 0x1822 <_ZN21UserInterface_TypeDef7HandlerEv+0x2ac>
    17ba:	8e ea       	ldi	r24, 0xAE	; 174
    17bc:	91 e0       	ldi	r25, 0x01	; 1
    17be:	0e 94 7d 09 	call	0x12fa	; 0x12fa <_ZN14System_TypeDef5TicksEv>
    17c2:	00 91 bf 01 	lds	r16, 0x01BF	; 0x8001bf <transitionTimer>
    17c6:	10 91 c0 01 	lds	r17, 0x01C0	; 0x8001c0 <transitionTimer+0x1>
    17ca:	20 91 c1 01 	lds	r18, 0x01C1	; 0x8001c1 <transitionTimer+0x2>
    17ce:	30 91 c2 01 	lds	r19, 0x01C2	; 0x8001c2 <transitionTimer+0x3>
    17d2:	dc 01       	movw	r26, r24
    17d4:	cb 01       	movw	r24, r22
    17d6:	80 1b       	sub	r24, r16
    17d8:	91 0b       	sbc	r25, r17
    17da:	a2 0b       	sbc	r26, r18
    17dc:	b3 0b       	sbc	r27, r19
    17de:	c2 97       	sbiw	r24, 0x32	; 50
    17e0:	a1 05       	cpc	r26, r1
    17e2:	b1 05       	cpc	r27, r1
    17e4:	90 f0       	brcs	.+36     	; 0x180a <_ZN21UserInterface_TypeDef7HandlerEv+0x294>
    17e6:	80 91 bb 01 	lds	r24, 0x01BB	; 0x8001bb <yPos>
    17ea:	81 50       	subi	r24, 0x01	; 1
    17ec:	80 93 bb 01 	sts	0x01BB, r24	; 0x8001bb <yPos>
    17f0:	8e ea       	ldi	r24, 0xAE	; 174
    17f2:	91 e0       	ldi	r25, 0x01	; 1
    17f4:	0e 94 7d 09 	call	0x12fa	; 0x12fa <_ZN14System_TypeDef5TicksEv>
    17f8:	60 93 bf 01 	sts	0x01BF, r22	; 0x8001bf <transitionTimer>
    17fc:	70 93 c0 01 	sts	0x01C0, r23	; 0x8001c0 <transitionTimer+0x1>
    1800:	80 93 c1 01 	sts	0x01C1, r24	; 0x8001c1 <transitionTimer+0x2>
    1804:	90 93 c2 01 	sts	0x01C2, r25	; 0x8001c2 <transitionTimer+0x3>
    1808:	c1 e0       	ldi	r28, 0x01	; 1
    180a:	80 91 bb 01 	lds	r24, 0x01BB	; 0x8001bb <yPos>
    180e:	89 3f       	cpi	r24, 0xF9	; 249
    1810:	bc f5       	brge	.+110    	; 0x1880 <_ZN21UserInterface_TypeDef7HandlerEv+0x30a>
    1812:	88 e0       	ldi	r24, 0x08	; 8
    1814:	80 93 bb 01 	sts	0x01BB, r24	; 0x8001bb <yPos>
    1818:	80 91 be 01 	lds	r24, 0x01BE	; 0x8001be <menu>
    181c:	80 93 bd 01 	sts	0x01BD, r24	; 0x8001bd <dispMenu>
    1820:	2f c0       	rjmp	.+94     	; 0x1880 <_ZN21UserInterface_TypeDef7HandlerEv+0x30a>
    1822:	8e ea       	ldi	r24, 0xAE	; 174
    1824:	91 e0       	ldi	r25, 0x01	; 1
    1826:	0e 94 7d 09 	call	0x12fa	; 0x12fa <_ZN14System_TypeDef5TicksEv>
    182a:	00 91 bf 01 	lds	r16, 0x01BF	; 0x8001bf <transitionTimer>
    182e:	10 91 c0 01 	lds	r17, 0x01C0	; 0x8001c0 <transitionTimer+0x1>
    1832:	20 91 c1 01 	lds	r18, 0x01C1	; 0x8001c1 <transitionTimer+0x2>
    1836:	30 91 c2 01 	lds	r19, 0x01C2	; 0x8001c2 <transitionTimer+0x3>
    183a:	dc 01       	movw	r26, r24
    183c:	cb 01       	movw	r24, r22
    183e:	80 1b       	sub	r24, r16
    1840:	91 0b       	sbc	r25, r17
    1842:	a2 0b       	sbc	r26, r18
    1844:	b3 0b       	sbc	r27, r19
    1846:	c2 97       	sbiw	r24, 0x32	; 50
    1848:	a1 05       	cpc	r26, r1
    184a:	b1 05       	cpc	r27, r1
    184c:	90 f0       	brcs	.+36     	; 0x1872 <_ZN21UserInterface_TypeDef7HandlerEv+0x2fc>
    184e:	80 91 bb 01 	lds	r24, 0x01BB	; 0x8001bb <yPos>
    1852:	81 50       	subi	r24, 0x01	; 1
    1854:	80 93 bb 01 	sts	0x01BB, r24	; 0x8001bb <yPos>
    1858:	8e ea       	ldi	r24, 0xAE	; 174
    185a:	91 e0       	ldi	r25, 0x01	; 1
    185c:	0e 94 7d 09 	call	0x12fa	; 0x12fa <_ZN14System_TypeDef5TicksEv>
    1860:	60 93 bf 01 	sts	0x01BF, r22	; 0x8001bf <transitionTimer>
    1864:	70 93 c0 01 	sts	0x01C0, r23	; 0x8001c0 <transitionTimer+0x1>
    1868:	80 93 c1 01 	sts	0x01C1, r24	; 0x8001c1 <transitionTimer+0x2>
    186c:	90 93 c2 01 	sts	0x01C2, r25	; 0x8001c2 <transitionTimer+0x3>
    1870:	c1 e0       	ldi	r28, 0x01	; 1
    1872:	80 91 bb 01 	lds	r24, 0x01BB	; 0x8001bb <yPos>
    1876:	81 11       	cpse	r24, r1
    1878:	03 c0       	rjmp	.+6      	; 0x1880 <_ZN21UserInterface_TypeDef7HandlerEv+0x30a>
    187a:	82 e0       	ldi	r24, 0x02	; 2
    187c:	80 93 06 02 	sts	0x0206, r24	; 0x800206 <transition>
    1880:	8e ea       	ldi	r24, 0xAE	; 174
    1882:	91 e0       	ldi	r25, 0x01	; 1
    1884:	0e 94 7d 09 	call	0x12fa	; 0x12fa <_ZN14System_TypeDef5TicksEv>
    1888:	00 91 c7 01 	lds	r16, 0x01C7	; 0x8001c7 <dispTimer>
    188c:	10 91 c8 01 	lds	r17, 0x01C8	; 0x8001c8 <dispTimer+0x1>
    1890:	20 91 c9 01 	lds	r18, 0x01C9	; 0x8001c9 <dispTimer+0x2>
    1894:	30 91 ca 01 	lds	r19, 0x01CA	; 0x8001ca <dispTimer+0x3>
    1898:	dc 01       	movw	r26, r24
    189a:	cb 01       	movw	r24, r22
    189c:	80 1b       	sub	r24, r16
    189e:	91 0b       	sbc	r25, r17
    18a0:	a2 0b       	sbc	r26, r18
    18a2:	b3 0b       	sbc	r27, r19
    18a4:	84 36       	cpi	r24, 0x64	; 100
    18a6:	91 05       	cpc	r25, r1
    18a8:	a1 05       	cpc	r26, r1
    18aa:	b1 05       	cpc	r27, r1
    18ac:	18 f4       	brcc	.+6      	; 0x18b4 <_ZN21UserInterface_TypeDef7HandlerEv+0x33e>
    18ae:	cc 23       	and	r28, r28
    18b0:	09 f4       	brne	.+2      	; 0x18b4 <_ZN21UserInterface_TypeDef7HandlerEv+0x33e>
    18b2:	86 c0       	rjmp	.+268    	; 0x19c0 <_ZN21UserInterface_TypeDef7HandlerEv+0x44a>
    18b4:	40 91 07 02 	lds	r20, 0x0207	; 0x800207 <disp>
    18b8:	88 e0       	ldi	r24, 0x08	; 8
    18ba:	48 9f       	mul	r20, r24
    18bc:	a0 01       	movw	r20, r0
    18be:	11 24       	eor	r1, r1
    18c0:	60 e0       	ldi	r22, 0x00	; 0
    18c2:	70 e0       	ldi	r23, 0x00	; 0
    18c4:	80 91 0d 02 	lds	r24, 0x020D	; 0x80020d <disp+0x6>
    18c8:	90 91 0e 02 	lds	r25, 0x020E	; 0x80020e <disp+0x7>
    18cc:	0e 94 67 0e 	call	0x1cce	; 0x1cce <memset>
    18d0:	e0 91 bd 01 	lds	r30, 0x01BD	; 0x8001bd <dispMenu>
    18d4:	8e 2f       	mov	r24, r30
    18d6:	90 e0       	ldi	r25, 0x00	; 0
    18d8:	88 30       	cpi	r24, 0x08	; 8
    18da:	91 05       	cpc	r25, r1
    18dc:	68 f0       	brcs	.+26     	; 0x18f8 <_ZN21UserInterface_TypeDef7HandlerEv+0x382>
    18de:	8e ea       	ldi	r24, 0xAE	; 174
    18e0:	91 e0       	ldi	r25, 0x01	; 1
    18e2:	0e 94 7d 09 	call	0x12fa	; 0x12fa <_ZN14System_TypeDef5TicksEv>
    18e6:	60 93 c7 01 	sts	0x01C7, r22	; 0x8001c7 <dispTimer>
    18ea:	70 93 c8 01 	sts	0x01C8, r23	; 0x8001c8 <dispTimer+0x1>
    18ee:	80 93 c9 01 	sts	0x01C9, r24	; 0x8001c9 <dispTimer+0x2>
    18f2:	90 93 ca 01 	sts	0x01CA, r25	; 0x8001ca <dispTimer+0x3>
    18f6:	64 c0       	rjmp	.+200    	; 0x19c0 <_ZN21UserInterface_TypeDef7HandlerEv+0x44a>
    18f8:	fc 01       	movw	r30, r24
    18fa:	ec 5c       	subi	r30, 0xCC	; 204
    18fc:	ff 4f       	sbci	r31, 0xFF	; 255
    18fe:	0c 94 61 0e 	jmp	0x1cc2	; 0x1cc2 <__tablejump2__>
    1902:	40 91 bb 01 	lds	r20, 0x01BB	; 0x8001bb <yPos>
    1906:	60 e0       	ldi	r22, 0x00	; 0
    1908:	c7 01       	movw	r24, r14
    190a:	0e 94 bd 09 	call	0x137a	; 0x137a <_ZN21UserInterface_TypeDef11DisplayTimeEhh>
    190e:	e7 cf       	rjmp	.-50     	; 0x18de <_ZN21UserInterface_TypeDef7HandlerEv+0x368>
    1910:	40 91 bb 01 	lds	r20, 0x01BB	; 0x8001bb <yPos>
    1914:	60 e0       	ldi	r22, 0x00	; 0
    1916:	c7 01       	movw	r24, r14
    1918:	0e 94 12 0a 	call	0x1424	; 0x1424 <_ZN21UserInterface_TypeDef10DisplayDayEhh>
    191c:	e0 cf       	rjmp	.-64     	; 0x18de <_ZN21UserInterface_TypeDef7HandlerEv+0x368>
    191e:	40 91 bb 01 	lds	r20, 0x01BB	; 0x8001bb <yPos>
    1922:	60 e0       	ldi	r22, 0x00	; 0
    1924:	c7 01       	movw	r24, r14
    1926:	0e 94 3f 0a 	call	0x147e	; 0x147e <_ZN21UserInterface_TypeDef11DisplayDateEhh>
    192a:	d9 cf       	rjmp	.-78     	; 0x18de <_ZN21UserInterface_TypeDef7HandlerEv+0x368>
    192c:	40 91 bb 01 	lds	r20, 0x01BB	; 0x8001bb <yPos>
    1930:	60 e0       	ldi	r22, 0x00	; 0
    1932:	c7 01       	movw	r24, r14
    1934:	0e 94 85 0a 	call	0x150a	; 0x150a <_ZN21UserInterface_TypeDef11DisplayYearEhh>
    1938:	d2 cf       	rjmp	.-92     	; 0x18de <_ZN21UserInterface_TypeDef7HandlerEv+0x368>
    193a:	80 91 bb 01 	lds	r24, 0x01BB	; 0x8001bb <yPos>
    193e:	26 e0       	ldi	r18, 0x06	; 6
    1940:	30 e0       	ldi	r19, 0x00	; 0
    1942:	30 93 10 02 	sts	0x0210, r19	; 0x800210 <disp+0x9>
    1946:	20 93 0f 02 	sts	0x020F, r18	; 0x80020f <disp+0x8>
    194a:	80 93 11 02 	sts	0x0211, r24	; 0x800211 <disp+0xa>
    194e:	63 e4       	ldi	r22, 0x43	; 67
    1950:	71 e0       	ldi	r23, 0x01	; 1
    1952:	26 c0       	rjmp	.+76     	; 0x19a0 <_ZN21UserInterface_TypeDef7HandlerEv+0x42a>
    1954:	80 91 bb 01 	lds	r24, 0x01BB	; 0x8001bb <yPos>
    1958:	26 e0       	ldi	r18, 0x06	; 6
    195a:	30 e0       	ldi	r19, 0x00	; 0
    195c:	30 93 10 02 	sts	0x0210, r19	; 0x800210 <disp+0x9>
    1960:	20 93 0f 02 	sts	0x020F, r18	; 0x80020f <disp+0x8>
    1964:	80 93 11 02 	sts	0x0211, r24	; 0x800211 <disp+0xa>
    1968:	68 e4       	ldi	r22, 0x48	; 72
    196a:	71 e0       	ldi	r23, 0x01	; 1
    196c:	19 c0       	rjmp	.+50     	; 0x19a0 <_ZN21UserInterface_TypeDef7HandlerEv+0x42a>
    196e:	80 91 bb 01 	lds	r24, 0x01BB	; 0x8001bb <yPos>
    1972:	26 e0       	ldi	r18, 0x06	; 6
    1974:	30 e0       	ldi	r19, 0x00	; 0
    1976:	30 93 10 02 	sts	0x0210, r19	; 0x800210 <disp+0x9>
    197a:	20 93 0f 02 	sts	0x020F, r18	; 0x80020f <disp+0x8>
    197e:	80 93 11 02 	sts	0x0211, r24	; 0x800211 <disp+0xa>
    1982:	6d e4       	ldi	r22, 0x4D	; 77
    1984:	71 e0       	ldi	r23, 0x01	; 1
    1986:	0c c0       	rjmp	.+24     	; 0x19a0 <_ZN21UserInterface_TypeDef7HandlerEv+0x42a>
    1988:	80 91 bb 01 	lds	r24, 0x01BB	; 0x8001bb <yPos>
    198c:	28 e0       	ldi	r18, 0x08	; 8
    198e:	30 e0       	ldi	r19, 0x00	; 0
    1990:	30 93 10 02 	sts	0x0210, r19	; 0x800210 <disp+0x9>
    1994:	20 93 0f 02 	sts	0x020F, r18	; 0x80020f <disp+0x8>
    1998:	80 93 11 02 	sts	0x0211, r24	; 0x800211 <disp+0xa>
    199c:	62 e5       	ldi	r22, 0x52	; 82
    199e:	71 e0       	ldi	r23, 0x01	; 1
    19a0:	82 ed       	ldi	r24, 0xD2	; 210
    19a2:	91 e0       	ldi	r25, 0x01	; 1
    19a4:	0e 94 6e 0e 	call	0x1cdc	; 0x1cdc <strcpy>
    19a8:	62 ed       	ldi	r22, 0xD2	; 210
    19aa:	71 e0       	ldi	r23, 0x01	; 1
    19ac:	87 e0       	ldi	r24, 0x07	; 7
    19ae:	92 e0       	ldi	r25, 0x02	; 2
    19b0:	0e 94 99 09 	call	0x1332	; 0x1332 <_ZN7MAX72195PrintEPKc>
    19b4:	60 e0       	ldi	r22, 0x00	; 0
    19b6:	87 e0       	ldi	r24, 0x07	; 7
    19b8:	92 e0       	ldi	r25, 0x02	; 2
    19ba:	0e 94 d5 07 	call	0xfaa	; 0xfaa <_ZN7MAX721910DrawBufferEh>
    19be:	8f cf       	rjmp	.-226    	; 0x18de <_ZN21UserInterface_TypeDef7HandlerEv+0x368>
    19c0:	cf 91       	pop	r28
    19c2:	1f 91       	pop	r17
    19c4:	0f 91       	pop	r16
    19c6:	ff 90       	pop	r15
    19c8:	ef 90       	pop	r14
    19ca:	08 95       	ret

000019cc <_GLOBAL__sub_I_UserInterface>:
    19cc:	e7 e0       	ldi	r30, 0x07	; 7
    19ce:	f2 e0       	ldi	r31, 0x02	; 2
    19d0:	81 eb       	ldi	r24, 0xB1	; 177
    19d2:	91 e0       	ldi	r25, 0x01	; 1
    19d4:	95 83       	std	Z+5, r25	; 0x05
    19d6:	84 83       	std	Z+4, r24	; 0x04
    19d8:	84 e0       	ldi	r24, 0x04	; 4
    19da:	80 83       	st	Z, r24
    19dc:	85 e2       	ldi	r24, 0x25	; 37
    19de:	90 e0       	ldi	r25, 0x00	; 0
    19e0:	92 83       	std	Z+2, r25	; 0x02
    19e2:	81 83       	std	Z+1, r24	; 0x01
    19e4:	82 e0       	ldi	r24, 0x02	; 2
    19e6:	83 83       	std	Z+3, r24	; 0x03
    19e8:	08 95       	ret

000019ea <__fixunssfsi>:
    19ea:	0e 94 69 0d 	call	0x1ad2	; 0x1ad2 <__fp_splitA>
    19ee:	88 f0       	brcs	.+34     	; 0x1a12 <__fixunssfsi+0x28>
    19f0:	9f 57       	subi	r25, 0x7F	; 127
    19f2:	98 f0       	brcs	.+38     	; 0x1a1a <__fixunssfsi+0x30>
    19f4:	b9 2f       	mov	r27, r25
    19f6:	99 27       	eor	r25, r25
    19f8:	b7 51       	subi	r27, 0x17	; 23
    19fa:	b0 f0       	brcs	.+44     	; 0x1a28 <__fixunssfsi+0x3e>
    19fc:	e1 f0       	breq	.+56     	; 0x1a36 <__fixunssfsi+0x4c>
    19fe:	66 0f       	add	r22, r22
    1a00:	77 1f       	adc	r23, r23
    1a02:	88 1f       	adc	r24, r24
    1a04:	99 1f       	adc	r25, r25
    1a06:	1a f0       	brmi	.+6      	; 0x1a0e <__fixunssfsi+0x24>
    1a08:	ba 95       	dec	r27
    1a0a:	c9 f7       	brne	.-14     	; 0x19fe <__fixunssfsi+0x14>
    1a0c:	14 c0       	rjmp	.+40     	; 0x1a36 <__fixunssfsi+0x4c>
    1a0e:	b1 30       	cpi	r27, 0x01	; 1
    1a10:	91 f0       	breq	.+36     	; 0x1a36 <__fixunssfsi+0x4c>
    1a12:	0e 94 83 0d 	call	0x1b06	; 0x1b06 <__fp_zero>
    1a16:	b1 e0       	ldi	r27, 0x01	; 1
    1a18:	08 95       	ret
    1a1a:	0c 94 83 0d 	jmp	0x1b06	; 0x1b06 <__fp_zero>
    1a1e:	67 2f       	mov	r22, r23
    1a20:	78 2f       	mov	r23, r24
    1a22:	88 27       	eor	r24, r24
    1a24:	b8 5f       	subi	r27, 0xF8	; 248
    1a26:	39 f0       	breq	.+14     	; 0x1a36 <__fixunssfsi+0x4c>
    1a28:	b9 3f       	cpi	r27, 0xF9	; 249
    1a2a:	cc f3       	brlt	.-14     	; 0x1a1e <__fixunssfsi+0x34>
    1a2c:	86 95       	lsr	r24
    1a2e:	77 95       	ror	r23
    1a30:	67 95       	ror	r22
    1a32:	b3 95       	inc	r27
    1a34:	d9 f7       	brne	.-10     	; 0x1a2c <__fixunssfsi+0x42>
    1a36:	3e f4       	brtc	.+14     	; 0x1a46 <__fixunssfsi+0x5c>
    1a38:	90 95       	com	r25
    1a3a:	80 95       	com	r24
    1a3c:	70 95       	com	r23
    1a3e:	61 95       	neg	r22
    1a40:	7f 4f       	sbci	r23, 0xFF	; 255
    1a42:	8f 4f       	sbci	r24, 0xFF	; 255
    1a44:	9f 4f       	sbci	r25, 0xFF	; 255
    1a46:	08 95       	ret

00001a48 <__floatunsisf>:
    1a48:	e8 94       	clt
    1a4a:	09 c0       	rjmp	.+18     	; 0x1a5e <__floatsisf+0x12>

00001a4c <__floatsisf>:
    1a4c:	97 fb       	bst	r25, 7
    1a4e:	3e f4       	brtc	.+14     	; 0x1a5e <__floatsisf+0x12>
    1a50:	90 95       	com	r25
    1a52:	80 95       	com	r24
    1a54:	70 95       	com	r23
    1a56:	61 95       	neg	r22
    1a58:	7f 4f       	sbci	r23, 0xFF	; 255
    1a5a:	8f 4f       	sbci	r24, 0xFF	; 255
    1a5c:	9f 4f       	sbci	r25, 0xFF	; 255
    1a5e:	99 23       	and	r25, r25
    1a60:	a9 f0       	breq	.+42     	; 0x1a8c <__floatsisf+0x40>
    1a62:	f9 2f       	mov	r31, r25
    1a64:	96 e9       	ldi	r25, 0x96	; 150
    1a66:	bb 27       	eor	r27, r27
    1a68:	93 95       	inc	r25
    1a6a:	f6 95       	lsr	r31
    1a6c:	87 95       	ror	r24
    1a6e:	77 95       	ror	r23
    1a70:	67 95       	ror	r22
    1a72:	b7 95       	ror	r27
    1a74:	f1 11       	cpse	r31, r1
    1a76:	f8 cf       	rjmp	.-16     	; 0x1a68 <__floatsisf+0x1c>
    1a78:	fa f4       	brpl	.+62     	; 0x1ab8 <__floatsisf+0x6c>
    1a7a:	bb 0f       	add	r27, r27
    1a7c:	11 f4       	brne	.+4      	; 0x1a82 <__floatsisf+0x36>
    1a7e:	60 ff       	sbrs	r22, 0
    1a80:	1b c0       	rjmp	.+54     	; 0x1ab8 <__floatsisf+0x6c>
    1a82:	6f 5f       	subi	r22, 0xFF	; 255
    1a84:	7f 4f       	sbci	r23, 0xFF	; 255
    1a86:	8f 4f       	sbci	r24, 0xFF	; 255
    1a88:	9f 4f       	sbci	r25, 0xFF	; 255
    1a8a:	16 c0       	rjmp	.+44     	; 0x1ab8 <__floatsisf+0x6c>
    1a8c:	88 23       	and	r24, r24
    1a8e:	11 f0       	breq	.+4      	; 0x1a94 <__floatsisf+0x48>
    1a90:	96 e9       	ldi	r25, 0x96	; 150
    1a92:	11 c0       	rjmp	.+34     	; 0x1ab6 <__floatsisf+0x6a>
    1a94:	77 23       	and	r23, r23
    1a96:	21 f0       	breq	.+8      	; 0x1aa0 <__floatsisf+0x54>
    1a98:	9e e8       	ldi	r25, 0x8E	; 142
    1a9a:	87 2f       	mov	r24, r23
    1a9c:	76 2f       	mov	r23, r22
    1a9e:	05 c0       	rjmp	.+10     	; 0x1aaa <__floatsisf+0x5e>
    1aa0:	66 23       	and	r22, r22
    1aa2:	71 f0       	breq	.+28     	; 0x1ac0 <__floatsisf+0x74>
    1aa4:	96 e8       	ldi	r25, 0x86	; 134
    1aa6:	86 2f       	mov	r24, r22
    1aa8:	70 e0       	ldi	r23, 0x00	; 0
    1aaa:	60 e0       	ldi	r22, 0x00	; 0
    1aac:	2a f0       	brmi	.+10     	; 0x1ab8 <__floatsisf+0x6c>
    1aae:	9a 95       	dec	r25
    1ab0:	66 0f       	add	r22, r22
    1ab2:	77 1f       	adc	r23, r23
    1ab4:	88 1f       	adc	r24, r24
    1ab6:	da f7       	brpl	.-10     	; 0x1aae <__floatsisf+0x62>
    1ab8:	88 0f       	add	r24, r24
    1aba:	96 95       	lsr	r25
    1abc:	87 95       	ror	r24
    1abe:	97 f9       	bld	r25, 7
    1ac0:	08 95       	ret

00001ac2 <__fp_split3>:
    1ac2:	57 fd       	sbrc	r21, 7
    1ac4:	90 58       	subi	r25, 0x80	; 128
    1ac6:	44 0f       	add	r20, r20
    1ac8:	55 1f       	adc	r21, r21
    1aca:	59 f0       	breq	.+22     	; 0x1ae2 <__fp_splitA+0x10>
    1acc:	5f 3f       	cpi	r21, 0xFF	; 255
    1ace:	71 f0       	breq	.+28     	; 0x1aec <__fp_splitA+0x1a>
    1ad0:	47 95       	ror	r20

00001ad2 <__fp_splitA>:
    1ad2:	88 0f       	add	r24, r24
    1ad4:	97 fb       	bst	r25, 7
    1ad6:	99 1f       	adc	r25, r25
    1ad8:	61 f0       	breq	.+24     	; 0x1af2 <__fp_splitA+0x20>
    1ada:	9f 3f       	cpi	r25, 0xFF	; 255
    1adc:	79 f0       	breq	.+30     	; 0x1afc <__fp_splitA+0x2a>
    1ade:	87 95       	ror	r24
    1ae0:	08 95       	ret
    1ae2:	12 16       	cp	r1, r18
    1ae4:	13 06       	cpc	r1, r19
    1ae6:	14 06       	cpc	r1, r20
    1ae8:	55 1f       	adc	r21, r21
    1aea:	f2 cf       	rjmp	.-28     	; 0x1ad0 <__fp_split3+0xe>
    1aec:	46 95       	lsr	r20
    1aee:	f1 df       	rcall	.-30     	; 0x1ad2 <__fp_splitA>
    1af0:	08 c0       	rjmp	.+16     	; 0x1b02 <__fp_splitA+0x30>
    1af2:	16 16       	cp	r1, r22
    1af4:	17 06       	cpc	r1, r23
    1af6:	18 06       	cpc	r1, r24
    1af8:	99 1f       	adc	r25, r25
    1afa:	f1 cf       	rjmp	.-30     	; 0x1ade <__fp_splitA+0xc>
    1afc:	86 95       	lsr	r24
    1afe:	71 05       	cpc	r23, r1
    1b00:	61 05       	cpc	r22, r1
    1b02:	08 94       	sec
    1b04:	08 95       	ret

00001b06 <__fp_zero>:
    1b06:	e8 94       	clt

00001b08 <__fp_szero>:
    1b08:	bb 27       	eor	r27, r27
    1b0a:	66 27       	eor	r22, r22
    1b0c:	77 27       	eor	r23, r23
    1b0e:	cb 01       	movw	r24, r22
    1b10:	97 f9       	bld	r25, 7
    1b12:	08 95       	ret

00001b14 <__mulsf3>:
    1b14:	0e 94 9d 0d 	call	0x1b3a	; 0x1b3a <__mulsf3x>
    1b18:	0c 94 0e 0e 	jmp	0x1c1c	; 0x1c1c <__fp_round>
    1b1c:	0e 94 00 0e 	call	0x1c00	; 0x1c00 <__fp_pscA>
    1b20:	38 f0       	brcs	.+14     	; 0x1b30 <__mulsf3+0x1c>
    1b22:	0e 94 07 0e 	call	0x1c0e	; 0x1c0e <__fp_pscB>
    1b26:	20 f0       	brcs	.+8      	; 0x1b30 <__mulsf3+0x1c>
    1b28:	95 23       	and	r25, r21
    1b2a:	11 f0       	breq	.+4      	; 0x1b30 <__mulsf3+0x1c>
    1b2c:	0c 94 f7 0d 	jmp	0x1bee	; 0x1bee <__fp_inf>
    1b30:	0c 94 fd 0d 	jmp	0x1bfa	; 0x1bfa <__fp_nan>
    1b34:	11 24       	eor	r1, r1
    1b36:	0c 94 84 0d 	jmp	0x1b08	; 0x1b08 <__fp_szero>

00001b3a <__mulsf3x>:
    1b3a:	0e 94 61 0d 	call	0x1ac2	; 0x1ac2 <__fp_split3>
    1b3e:	70 f3       	brcs	.-36     	; 0x1b1c <__mulsf3+0x8>

00001b40 <__mulsf3_pse>:
    1b40:	95 9f       	mul	r25, r21
    1b42:	c1 f3       	breq	.-16     	; 0x1b34 <__mulsf3+0x20>
    1b44:	95 0f       	add	r25, r21
    1b46:	50 e0       	ldi	r21, 0x00	; 0
    1b48:	55 1f       	adc	r21, r21
    1b4a:	62 9f       	mul	r22, r18
    1b4c:	f0 01       	movw	r30, r0
    1b4e:	72 9f       	mul	r23, r18
    1b50:	bb 27       	eor	r27, r27
    1b52:	f0 0d       	add	r31, r0
    1b54:	b1 1d       	adc	r27, r1
    1b56:	63 9f       	mul	r22, r19
    1b58:	aa 27       	eor	r26, r26
    1b5a:	f0 0d       	add	r31, r0
    1b5c:	b1 1d       	adc	r27, r1
    1b5e:	aa 1f       	adc	r26, r26
    1b60:	64 9f       	mul	r22, r20
    1b62:	66 27       	eor	r22, r22
    1b64:	b0 0d       	add	r27, r0
    1b66:	a1 1d       	adc	r26, r1
    1b68:	66 1f       	adc	r22, r22
    1b6a:	82 9f       	mul	r24, r18
    1b6c:	22 27       	eor	r18, r18
    1b6e:	b0 0d       	add	r27, r0
    1b70:	a1 1d       	adc	r26, r1
    1b72:	62 1f       	adc	r22, r18
    1b74:	73 9f       	mul	r23, r19
    1b76:	b0 0d       	add	r27, r0
    1b78:	a1 1d       	adc	r26, r1
    1b7a:	62 1f       	adc	r22, r18
    1b7c:	83 9f       	mul	r24, r19
    1b7e:	a0 0d       	add	r26, r0
    1b80:	61 1d       	adc	r22, r1
    1b82:	22 1f       	adc	r18, r18
    1b84:	74 9f       	mul	r23, r20
    1b86:	33 27       	eor	r19, r19
    1b88:	a0 0d       	add	r26, r0
    1b8a:	61 1d       	adc	r22, r1
    1b8c:	23 1f       	adc	r18, r19
    1b8e:	84 9f       	mul	r24, r20
    1b90:	60 0d       	add	r22, r0
    1b92:	21 1d       	adc	r18, r1
    1b94:	82 2f       	mov	r24, r18
    1b96:	76 2f       	mov	r23, r22
    1b98:	6a 2f       	mov	r22, r26
    1b9a:	11 24       	eor	r1, r1
    1b9c:	9f 57       	subi	r25, 0x7F	; 127
    1b9e:	50 40       	sbci	r21, 0x00	; 0
    1ba0:	9a f0       	brmi	.+38     	; 0x1bc8 <__mulsf3_pse+0x88>
    1ba2:	f1 f0       	breq	.+60     	; 0x1be0 <__mulsf3_pse+0xa0>
    1ba4:	88 23       	and	r24, r24
    1ba6:	4a f0       	brmi	.+18     	; 0x1bba <__mulsf3_pse+0x7a>
    1ba8:	ee 0f       	add	r30, r30
    1baa:	ff 1f       	adc	r31, r31
    1bac:	bb 1f       	adc	r27, r27
    1bae:	66 1f       	adc	r22, r22
    1bb0:	77 1f       	adc	r23, r23
    1bb2:	88 1f       	adc	r24, r24
    1bb4:	91 50       	subi	r25, 0x01	; 1
    1bb6:	50 40       	sbci	r21, 0x00	; 0
    1bb8:	a9 f7       	brne	.-22     	; 0x1ba4 <__mulsf3_pse+0x64>
    1bba:	9e 3f       	cpi	r25, 0xFE	; 254
    1bbc:	51 05       	cpc	r21, r1
    1bbe:	80 f0       	brcs	.+32     	; 0x1be0 <__mulsf3_pse+0xa0>
    1bc0:	0c 94 f7 0d 	jmp	0x1bee	; 0x1bee <__fp_inf>
    1bc4:	0c 94 84 0d 	jmp	0x1b08	; 0x1b08 <__fp_szero>
    1bc8:	5f 3f       	cpi	r21, 0xFF	; 255
    1bca:	e4 f3       	brlt	.-8      	; 0x1bc4 <__mulsf3_pse+0x84>
    1bcc:	98 3e       	cpi	r25, 0xE8	; 232
    1bce:	d4 f3       	brlt	.-12     	; 0x1bc4 <__mulsf3_pse+0x84>
    1bd0:	86 95       	lsr	r24
    1bd2:	77 95       	ror	r23
    1bd4:	67 95       	ror	r22
    1bd6:	b7 95       	ror	r27
    1bd8:	f7 95       	ror	r31
    1bda:	e7 95       	ror	r30
    1bdc:	9f 5f       	subi	r25, 0xFF	; 255
    1bde:	c1 f7       	brne	.-16     	; 0x1bd0 <__mulsf3_pse+0x90>
    1be0:	fe 2b       	or	r31, r30
    1be2:	88 0f       	add	r24, r24
    1be4:	91 1d       	adc	r25, r1
    1be6:	96 95       	lsr	r25
    1be8:	87 95       	ror	r24
    1bea:	97 f9       	bld	r25, 7
    1bec:	08 95       	ret

00001bee <__fp_inf>:
    1bee:	97 f9       	bld	r25, 7
    1bf0:	9f 67       	ori	r25, 0x7F	; 127
    1bf2:	80 e8       	ldi	r24, 0x80	; 128
    1bf4:	70 e0       	ldi	r23, 0x00	; 0
    1bf6:	60 e0       	ldi	r22, 0x00	; 0
    1bf8:	08 95       	ret

00001bfa <__fp_nan>:
    1bfa:	9f ef       	ldi	r25, 0xFF	; 255
    1bfc:	80 ec       	ldi	r24, 0xC0	; 192
    1bfe:	08 95       	ret

00001c00 <__fp_pscA>:
    1c00:	00 24       	eor	r0, r0
    1c02:	0a 94       	dec	r0
    1c04:	16 16       	cp	r1, r22
    1c06:	17 06       	cpc	r1, r23
    1c08:	18 06       	cpc	r1, r24
    1c0a:	09 06       	cpc	r0, r25
    1c0c:	08 95       	ret

00001c0e <__fp_pscB>:
    1c0e:	00 24       	eor	r0, r0
    1c10:	0a 94       	dec	r0
    1c12:	12 16       	cp	r1, r18
    1c14:	13 06       	cpc	r1, r19
    1c16:	14 06       	cpc	r1, r20
    1c18:	05 06       	cpc	r0, r21
    1c1a:	08 95       	ret

00001c1c <__fp_round>:
    1c1c:	09 2e       	mov	r0, r25
    1c1e:	03 94       	inc	r0
    1c20:	00 0c       	add	r0, r0
    1c22:	11 f4       	brne	.+4      	; 0x1c28 <__fp_round+0xc>
    1c24:	88 23       	and	r24, r24
    1c26:	52 f0       	brmi	.+20     	; 0x1c3c <__fp_round+0x20>
    1c28:	bb 0f       	add	r27, r27
    1c2a:	40 f4       	brcc	.+16     	; 0x1c3c <__fp_round+0x20>
    1c2c:	bf 2b       	or	r27, r31
    1c2e:	11 f4       	brne	.+4      	; 0x1c34 <__fp_round+0x18>
    1c30:	60 ff       	sbrs	r22, 0
    1c32:	04 c0       	rjmp	.+8      	; 0x1c3c <__fp_round+0x20>
    1c34:	6f 5f       	subi	r22, 0xFF	; 255
    1c36:	7f 4f       	sbci	r23, 0xFF	; 255
    1c38:	8f 4f       	sbci	r24, 0xFF	; 255
    1c3a:	9f 4f       	sbci	r25, 0xFF	; 255
    1c3c:	08 95       	ret

00001c3e <__udivmodqi4>:
    1c3e:	99 1b       	sub	r25, r25
    1c40:	79 e0       	ldi	r23, 0x09	; 9
    1c42:	04 c0       	rjmp	.+8      	; 0x1c4c <__udivmodqi4_ep>

00001c44 <__udivmodqi4_loop>:
    1c44:	99 1f       	adc	r25, r25
    1c46:	96 17       	cp	r25, r22
    1c48:	08 f0       	brcs	.+2      	; 0x1c4c <__udivmodqi4_ep>
    1c4a:	96 1b       	sub	r25, r22

00001c4c <__udivmodqi4_ep>:
    1c4c:	88 1f       	adc	r24, r24
    1c4e:	7a 95       	dec	r23
    1c50:	c9 f7       	brne	.-14     	; 0x1c44 <__udivmodqi4_loop>
    1c52:	80 95       	com	r24
    1c54:	08 95       	ret

00001c56 <__udivmodhi4>:
    1c56:	aa 1b       	sub	r26, r26
    1c58:	bb 1b       	sub	r27, r27
    1c5a:	51 e1       	ldi	r21, 0x11	; 17
    1c5c:	07 c0       	rjmp	.+14     	; 0x1c6c <__udivmodhi4_ep>

00001c5e <__udivmodhi4_loop>:
    1c5e:	aa 1f       	adc	r26, r26
    1c60:	bb 1f       	adc	r27, r27
    1c62:	a6 17       	cp	r26, r22
    1c64:	b7 07       	cpc	r27, r23
    1c66:	10 f0       	brcs	.+4      	; 0x1c6c <__udivmodhi4_ep>
    1c68:	a6 1b       	sub	r26, r22
    1c6a:	b7 0b       	sbc	r27, r23

00001c6c <__udivmodhi4_ep>:
    1c6c:	88 1f       	adc	r24, r24
    1c6e:	99 1f       	adc	r25, r25
    1c70:	5a 95       	dec	r21
    1c72:	a9 f7       	brne	.-22     	; 0x1c5e <__udivmodhi4_loop>
    1c74:	80 95       	com	r24
    1c76:	90 95       	com	r25
    1c78:	bc 01       	movw	r22, r24
    1c7a:	cd 01       	movw	r24, r26
    1c7c:	08 95       	ret

00001c7e <__udivmodsi4>:
    1c7e:	a1 e2       	ldi	r26, 0x21	; 33
    1c80:	1a 2e       	mov	r1, r26
    1c82:	aa 1b       	sub	r26, r26
    1c84:	bb 1b       	sub	r27, r27
    1c86:	fd 01       	movw	r30, r26
    1c88:	0d c0       	rjmp	.+26     	; 0x1ca4 <__udivmodsi4_ep>

00001c8a <__udivmodsi4_loop>:
    1c8a:	aa 1f       	adc	r26, r26
    1c8c:	bb 1f       	adc	r27, r27
    1c8e:	ee 1f       	adc	r30, r30
    1c90:	ff 1f       	adc	r31, r31
    1c92:	a2 17       	cp	r26, r18
    1c94:	b3 07       	cpc	r27, r19
    1c96:	e4 07       	cpc	r30, r20
    1c98:	f5 07       	cpc	r31, r21
    1c9a:	20 f0       	brcs	.+8      	; 0x1ca4 <__udivmodsi4_ep>
    1c9c:	a2 1b       	sub	r26, r18
    1c9e:	b3 0b       	sbc	r27, r19
    1ca0:	e4 0b       	sbc	r30, r20
    1ca2:	f5 0b       	sbc	r31, r21

00001ca4 <__udivmodsi4_ep>:
    1ca4:	66 1f       	adc	r22, r22
    1ca6:	77 1f       	adc	r23, r23
    1ca8:	88 1f       	adc	r24, r24
    1caa:	99 1f       	adc	r25, r25
    1cac:	1a 94       	dec	r1
    1cae:	69 f7       	brne	.-38     	; 0x1c8a <__udivmodsi4_loop>
    1cb0:	60 95       	com	r22
    1cb2:	70 95       	com	r23
    1cb4:	80 95       	com	r24
    1cb6:	90 95       	com	r25
    1cb8:	9b 01       	movw	r18, r22
    1cba:	ac 01       	movw	r20, r24
    1cbc:	bd 01       	movw	r22, r26
    1cbe:	cf 01       	movw	r24, r30
    1cc0:	08 95       	ret

00001cc2 <__tablejump2__>:
    1cc2:	ee 0f       	add	r30, r30
    1cc4:	ff 1f       	adc	r31, r31
    1cc6:	05 90       	lpm	r0, Z+
    1cc8:	f4 91       	lpm	r31, Z
    1cca:	e0 2d       	mov	r30, r0
    1ccc:	09 94       	ijmp

00001cce <memset>:
    1cce:	dc 01       	movw	r26, r24
    1cd0:	01 c0       	rjmp	.+2      	; 0x1cd4 <memset+0x6>
    1cd2:	6d 93       	st	X+, r22
    1cd4:	41 50       	subi	r20, 0x01	; 1
    1cd6:	50 40       	sbci	r21, 0x00	; 0
    1cd8:	e0 f7       	brcc	.-8      	; 0x1cd2 <memset+0x4>
    1cda:	08 95       	ret

00001cdc <strcpy>:
    1cdc:	fb 01       	movw	r30, r22
    1cde:	dc 01       	movw	r26, r24
    1ce0:	01 90       	ld	r0, Z+
    1ce2:	0d 92       	st	X+, r0
    1ce4:	00 20       	and	r0, r0
    1ce6:	e1 f7       	brne	.-8      	; 0x1ce0 <strcpy+0x4>
    1ce8:	08 95       	ret

00001cea <sprintf>:
    1cea:	ae e0       	ldi	r26, 0x0E	; 14
    1cec:	b0 e0       	ldi	r27, 0x00	; 0
    1cee:	eb e7       	ldi	r30, 0x7B	; 123
    1cf0:	fe e0       	ldi	r31, 0x0E	; 14
    1cf2:	0c 94 36 11 	jmp	0x226c	; 0x226c <__prologue_saves__+0x1c>
    1cf6:	0d 89       	ldd	r16, Y+21	; 0x15
    1cf8:	1e 89       	ldd	r17, Y+22	; 0x16
    1cfa:	86 e0       	ldi	r24, 0x06	; 6
    1cfc:	8c 83       	std	Y+4, r24	; 0x04
    1cfe:	1a 83       	std	Y+2, r17	; 0x02
    1d00:	09 83       	std	Y+1, r16	; 0x01
    1d02:	8f ef       	ldi	r24, 0xFF	; 255
    1d04:	9f e7       	ldi	r25, 0x7F	; 127
    1d06:	9e 83       	std	Y+6, r25	; 0x06
    1d08:	8d 83       	std	Y+5, r24	; 0x05
    1d0a:	ae 01       	movw	r20, r28
    1d0c:	47 5e       	subi	r20, 0xE7	; 231
    1d0e:	5f 4f       	sbci	r21, 0xFF	; 255
    1d10:	6f 89       	ldd	r22, Y+23	; 0x17
    1d12:	78 8d       	ldd	r23, Y+24	; 0x18
    1d14:	ce 01       	movw	r24, r28
    1d16:	01 96       	adiw	r24, 0x01	; 1
    1d18:	0e 94 97 0e 	call	0x1d2e	; 0x1d2e <vfprintf>
    1d1c:	ef 81       	ldd	r30, Y+7	; 0x07
    1d1e:	f8 85       	ldd	r31, Y+8	; 0x08
    1d20:	e0 0f       	add	r30, r16
    1d22:	f1 1f       	adc	r31, r17
    1d24:	10 82       	st	Z, r1
    1d26:	2e 96       	adiw	r28, 0x0e	; 14
    1d28:	e4 e0       	ldi	r30, 0x04	; 4
    1d2a:	0c 94 52 11 	jmp	0x22a4	; 0x22a4 <__epilogue_restores__+0x1c>

00001d2e <vfprintf>:
    1d2e:	ab e0       	ldi	r26, 0x0B	; 11
    1d30:	b0 e0       	ldi	r27, 0x00	; 0
    1d32:	ed e9       	ldi	r30, 0x9D	; 157
    1d34:	fe e0       	ldi	r31, 0x0E	; 14
    1d36:	0c 94 28 11 	jmp	0x2250	; 0x2250 <__prologue_saves__>
    1d3a:	6c 01       	movw	r12, r24
    1d3c:	7b 01       	movw	r14, r22
    1d3e:	8a 01       	movw	r16, r20
    1d40:	fc 01       	movw	r30, r24
    1d42:	17 82       	std	Z+7, r1	; 0x07
    1d44:	16 82       	std	Z+6, r1	; 0x06
    1d46:	83 81       	ldd	r24, Z+3	; 0x03
    1d48:	81 ff       	sbrs	r24, 1
    1d4a:	cc c1       	rjmp	.+920    	; 0x20e4 <vfprintf+0x3b6>
    1d4c:	ce 01       	movw	r24, r28
    1d4e:	01 96       	adiw	r24, 0x01	; 1
    1d50:	3c 01       	movw	r6, r24
    1d52:	f6 01       	movw	r30, r12
    1d54:	93 81       	ldd	r25, Z+3	; 0x03
    1d56:	f7 01       	movw	r30, r14
    1d58:	93 fd       	sbrc	r25, 3
    1d5a:	85 91       	lpm	r24, Z+
    1d5c:	93 ff       	sbrs	r25, 3
    1d5e:	81 91       	ld	r24, Z+
    1d60:	7f 01       	movw	r14, r30
    1d62:	88 23       	and	r24, r24
    1d64:	09 f4       	brne	.+2      	; 0x1d68 <vfprintf+0x3a>
    1d66:	ba c1       	rjmp	.+884    	; 0x20dc <vfprintf+0x3ae>
    1d68:	85 32       	cpi	r24, 0x25	; 37
    1d6a:	39 f4       	brne	.+14     	; 0x1d7a <vfprintf+0x4c>
    1d6c:	93 fd       	sbrc	r25, 3
    1d6e:	85 91       	lpm	r24, Z+
    1d70:	93 ff       	sbrs	r25, 3
    1d72:	81 91       	ld	r24, Z+
    1d74:	7f 01       	movw	r14, r30
    1d76:	85 32       	cpi	r24, 0x25	; 37
    1d78:	29 f4       	brne	.+10     	; 0x1d84 <vfprintf+0x56>
    1d7a:	b6 01       	movw	r22, r12
    1d7c:	90 e0       	ldi	r25, 0x00	; 0
    1d7e:	0e 94 8e 10 	call	0x211c	; 0x211c <fputc>
    1d82:	e7 cf       	rjmp	.-50     	; 0x1d52 <vfprintf+0x24>
    1d84:	91 2c       	mov	r9, r1
    1d86:	21 2c       	mov	r2, r1
    1d88:	31 2c       	mov	r3, r1
    1d8a:	ff e1       	ldi	r31, 0x1F	; 31
    1d8c:	f3 15       	cp	r31, r3
    1d8e:	d8 f0       	brcs	.+54     	; 0x1dc6 <vfprintf+0x98>
    1d90:	8b 32       	cpi	r24, 0x2B	; 43
    1d92:	79 f0       	breq	.+30     	; 0x1db2 <vfprintf+0x84>
    1d94:	38 f4       	brcc	.+14     	; 0x1da4 <vfprintf+0x76>
    1d96:	80 32       	cpi	r24, 0x20	; 32
    1d98:	79 f0       	breq	.+30     	; 0x1db8 <vfprintf+0x8a>
    1d9a:	83 32       	cpi	r24, 0x23	; 35
    1d9c:	a1 f4       	brne	.+40     	; 0x1dc6 <vfprintf+0x98>
    1d9e:	23 2d       	mov	r18, r3
    1da0:	20 61       	ori	r18, 0x10	; 16
    1da2:	1d c0       	rjmp	.+58     	; 0x1dde <vfprintf+0xb0>
    1da4:	8d 32       	cpi	r24, 0x2D	; 45
    1da6:	61 f0       	breq	.+24     	; 0x1dc0 <vfprintf+0x92>
    1da8:	80 33       	cpi	r24, 0x30	; 48
    1daa:	69 f4       	brne	.+26     	; 0x1dc6 <vfprintf+0x98>
    1dac:	23 2d       	mov	r18, r3
    1dae:	21 60       	ori	r18, 0x01	; 1
    1db0:	16 c0       	rjmp	.+44     	; 0x1dde <vfprintf+0xb0>
    1db2:	83 2d       	mov	r24, r3
    1db4:	82 60       	ori	r24, 0x02	; 2
    1db6:	38 2e       	mov	r3, r24
    1db8:	e3 2d       	mov	r30, r3
    1dba:	e4 60       	ori	r30, 0x04	; 4
    1dbc:	3e 2e       	mov	r3, r30
    1dbe:	2a c0       	rjmp	.+84     	; 0x1e14 <vfprintf+0xe6>
    1dc0:	f3 2d       	mov	r31, r3
    1dc2:	f8 60       	ori	r31, 0x08	; 8
    1dc4:	1d c0       	rjmp	.+58     	; 0x1e00 <vfprintf+0xd2>
    1dc6:	37 fc       	sbrc	r3, 7
    1dc8:	2d c0       	rjmp	.+90     	; 0x1e24 <vfprintf+0xf6>
    1dca:	20 ed       	ldi	r18, 0xD0	; 208
    1dcc:	28 0f       	add	r18, r24
    1dce:	2a 30       	cpi	r18, 0x0A	; 10
    1dd0:	40 f0       	brcs	.+16     	; 0x1de2 <vfprintf+0xb4>
    1dd2:	8e 32       	cpi	r24, 0x2E	; 46
    1dd4:	b9 f4       	brne	.+46     	; 0x1e04 <vfprintf+0xd6>
    1dd6:	36 fc       	sbrc	r3, 6
    1dd8:	81 c1       	rjmp	.+770    	; 0x20dc <vfprintf+0x3ae>
    1dda:	23 2d       	mov	r18, r3
    1ddc:	20 64       	ori	r18, 0x40	; 64
    1dde:	32 2e       	mov	r3, r18
    1de0:	19 c0       	rjmp	.+50     	; 0x1e14 <vfprintf+0xe6>
    1de2:	36 fe       	sbrs	r3, 6
    1de4:	06 c0       	rjmp	.+12     	; 0x1df2 <vfprintf+0xc4>
    1de6:	8a e0       	ldi	r24, 0x0A	; 10
    1de8:	98 9e       	mul	r9, r24
    1dea:	20 0d       	add	r18, r0
    1dec:	11 24       	eor	r1, r1
    1dee:	92 2e       	mov	r9, r18
    1df0:	11 c0       	rjmp	.+34     	; 0x1e14 <vfprintf+0xe6>
    1df2:	ea e0       	ldi	r30, 0x0A	; 10
    1df4:	2e 9e       	mul	r2, r30
    1df6:	20 0d       	add	r18, r0
    1df8:	11 24       	eor	r1, r1
    1dfa:	22 2e       	mov	r2, r18
    1dfc:	f3 2d       	mov	r31, r3
    1dfe:	f0 62       	ori	r31, 0x20	; 32
    1e00:	3f 2e       	mov	r3, r31
    1e02:	08 c0       	rjmp	.+16     	; 0x1e14 <vfprintf+0xe6>
    1e04:	8c 36       	cpi	r24, 0x6C	; 108
    1e06:	21 f4       	brne	.+8      	; 0x1e10 <vfprintf+0xe2>
    1e08:	83 2d       	mov	r24, r3
    1e0a:	80 68       	ori	r24, 0x80	; 128
    1e0c:	38 2e       	mov	r3, r24
    1e0e:	02 c0       	rjmp	.+4      	; 0x1e14 <vfprintf+0xe6>
    1e10:	88 36       	cpi	r24, 0x68	; 104
    1e12:	41 f4       	brne	.+16     	; 0x1e24 <vfprintf+0xf6>
    1e14:	f7 01       	movw	r30, r14
    1e16:	93 fd       	sbrc	r25, 3
    1e18:	85 91       	lpm	r24, Z+
    1e1a:	93 ff       	sbrs	r25, 3
    1e1c:	81 91       	ld	r24, Z+
    1e1e:	7f 01       	movw	r14, r30
    1e20:	81 11       	cpse	r24, r1
    1e22:	b3 cf       	rjmp	.-154    	; 0x1d8a <vfprintf+0x5c>
    1e24:	98 2f       	mov	r25, r24
    1e26:	9f 7d       	andi	r25, 0xDF	; 223
    1e28:	95 54       	subi	r25, 0x45	; 69
    1e2a:	93 30       	cpi	r25, 0x03	; 3
    1e2c:	28 f4       	brcc	.+10     	; 0x1e38 <vfprintf+0x10a>
    1e2e:	0c 5f       	subi	r16, 0xFC	; 252
    1e30:	1f 4f       	sbci	r17, 0xFF	; 255
    1e32:	9f e3       	ldi	r25, 0x3F	; 63
    1e34:	99 83       	std	Y+1, r25	; 0x01
    1e36:	0d c0       	rjmp	.+26     	; 0x1e52 <vfprintf+0x124>
    1e38:	83 36       	cpi	r24, 0x63	; 99
    1e3a:	31 f0       	breq	.+12     	; 0x1e48 <vfprintf+0x11a>
    1e3c:	83 37       	cpi	r24, 0x73	; 115
    1e3e:	71 f0       	breq	.+28     	; 0x1e5c <vfprintf+0x12e>
    1e40:	83 35       	cpi	r24, 0x53	; 83
    1e42:	09 f0       	breq	.+2      	; 0x1e46 <vfprintf+0x118>
    1e44:	59 c0       	rjmp	.+178    	; 0x1ef8 <vfprintf+0x1ca>
    1e46:	21 c0       	rjmp	.+66     	; 0x1e8a <vfprintf+0x15c>
    1e48:	f8 01       	movw	r30, r16
    1e4a:	80 81       	ld	r24, Z
    1e4c:	89 83       	std	Y+1, r24	; 0x01
    1e4e:	0e 5f       	subi	r16, 0xFE	; 254
    1e50:	1f 4f       	sbci	r17, 0xFF	; 255
    1e52:	88 24       	eor	r8, r8
    1e54:	83 94       	inc	r8
    1e56:	91 2c       	mov	r9, r1
    1e58:	53 01       	movw	r10, r6
    1e5a:	13 c0       	rjmp	.+38     	; 0x1e82 <vfprintf+0x154>
    1e5c:	28 01       	movw	r4, r16
    1e5e:	f2 e0       	ldi	r31, 0x02	; 2
    1e60:	4f 0e       	add	r4, r31
    1e62:	51 1c       	adc	r5, r1
    1e64:	f8 01       	movw	r30, r16
    1e66:	a0 80       	ld	r10, Z
    1e68:	b1 80       	ldd	r11, Z+1	; 0x01
    1e6a:	36 fe       	sbrs	r3, 6
    1e6c:	03 c0       	rjmp	.+6      	; 0x1e74 <vfprintf+0x146>
    1e6e:	69 2d       	mov	r22, r9
    1e70:	70 e0       	ldi	r23, 0x00	; 0
    1e72:	02 c0       	rjmp	.+4      	; 0x1e78 <vfprintf+0x14a>
    1e74:	6f ef       	ldi	r22, 0xFF	; 255
    1e76:	7f ef       	ldi	r23, 0xFF	; 255
    1e78:	c5 01       	movw	r24, r10
    1e7a:	0e 94 83 10 	call	0x2106	; 0x2106 <strnlen>
    1e7e:	4c 01       	movw	r8, r24
    1e80:	82 01       	movw	r16, r4
    1e82:	f3 2d       	mov	r31, r3
    1e84:	ff 77       	andi	r31, 0x7F	; 127
    1e86:	3f 2e       	mov	r3, r31
    1e88:	16 c0       	rjmp	.+44     	; 0x1eb6 <vfprintf+0x188>
    1e8a:	28 01       	movw	r4, r16
    1e8c:	22 e0       	ldi	r18, 0x02	; 2
    1e8e:	42 0e       	add	r4, r18
    1e90:	51 1c       	adc	r5, r1
    1e92:	f8 01       	movw	r30, r16
    1e94:	a0 80       	ld	r10, Z
    1e96:	b1 80       	ldd	r11, Z+1	; 0x01
    1e98:	36 fe       	sbrs	r3, 6
    1e9a:	03 c0       	rjmp	.+6      	; 0x1ea2 <vfprintf+0x174>
    1e9c:	69 2d       	mov	r22, r9
    1e9e:	70 e0       	ldi	r23, 0x00	; 0
    1ea0:	02 c0       	rjmp	.+4      	; 0x1ea6 <vfprintf+0x178>
    1ea2:	6f ef       	ldi	r22, 0xFF	; 255
    1ea4:	7f ef       	ldi	r23, 0xFF	; 255
    1ea6:	c5 01       	movw	r24, r10
    1ea8:	0e 94 78 10 	call	0x20f0	; 0x20f0 <strnlen_P>
    1eac:	4c 01       	movw	r8, r24
    1eae:	f3 2d       	mov	r31, r3
    1eb0:	f0 68       	ori	r31, 0x80	; 128
    1eb2:	3f 2e       	mov	r3, r31
    1eb4:	82 01       	movw	r16, r4
    1eb6:	33 fc       	sbrc	r3, 3
    1eb8:	1b c0       	rjmp	.+54     	; 0x1ef0 <vfprintf+0x1c2>
    1eba:	82 2d       	mov	r24, r2
    1ebc:	90 e0       	ldi	r25, 0x00	; 0
    1ebe:	88 16       	cp	r8, r24
    1ec0:	99 06       	cpc	r9, r25
    1ec2:	b0 f4       	brcc	.+44     	; 0x1ef0 <vfprintf+0x1c2>
    1ec4:	b6 01       	movw	r22, r12
    1ec6:	80 e2       	ldi	r24, 0x20	; 32
    1ec8:	90 e0       	ldi	r25, 0x00	; 0
    1eca:	0e 94 8e 10 	call	0x211c	; 0x211c <fputc>
    1ece:	2a 94       	dec	r2
    1ed0:	f4 cf       	rjmp	.-24     	; 0x1eba <vfprintf+0x18c>
    1ed2:	f5 01       	movw	r30, r10
    1ed4:	37 fc       	sbrc	r3, 7
    1ed6:	85 91       	lpm	r24, Z+
    1ed8:	37 fe       	sbrs	r3, 7
    1eda:	81 91       	ld	r24, Z+
    1edc:	5f 01       	movw	r10, r30
    1ede:	b6 01       	movw	r22, r12
    1ee0:	90 e0       	ldi	r25, 0x00	; 0
    1ee2:	0e 94 8e 10 	call	0x211c	; 0x211c <fputc>
    1ee6:	21 10       	cpse	r2, r1
    1ee8:	2a 94       	dec	r2
    1eea:	21 e0       	ldi	r18, 0x01	; 1
    1eec:	82 1a       	sub	r8, r18
    1eee:	91 08       	sbc	r9, r1
    1ef0:	81 14       	cp	r8, r1
    1ef2:	91 04       	cpc	r9, r1
    1ef4:	71 f7       	brne	.-36     	; 0x1ed2 <vfprintf+0x1a4>
    1ef6:	e8 c0       	rjmp	.+464    	; 0x20c8 <vfprintf+0x39a>
    1ef8:	84 36       	cpi	r24, 0x64	; 100
    1efa:	11 f0       	breq	.+4      	; 0x1f00 <vfprintf+0x1d2>
    1efc:	89 36       	cpi	r24, 0x69	; 105
    1efe:	41 f5       	brne	.+80     	; 0x1f50 <vfprintf+0x222>
    1f00:	f8 01       	movw	r30, r16
    1f02:	37 fe       	sbrs	r3, 7
    1f04:	07 c0       	rjmp	.+14     	; 0x1f14 <vfprintf+0x1e6>
    1f06:	60 81       	ld	r22, Z
    1f08:	71 81       	ldd	r23, Z+1	; 0x01
    1f0a:	82 81       	ldd	r24, Z+2	; 0x02
    1f0c:	93 81       	ldd	r25, Z+3	; 0x03
    1f0e:	0c 5f       	subi	r16, 0xFC	; 252
    1f10:	1f 4f       	sbci	r17, 0xFF	; 255
    1f12:	08 c0       	rjmp	.+16     	; 0x1f24 <vfprintf+0x1f6>
    1f14:	60 81       	ld	r22, Z
    1f16:	71 81       	ldd	r23, Z+1	; 0x01
    1f18:	07 2e       	mov	r0, r23
    1f1a:	00 0c       	add	r0, r0
    1f1c:	88 0b       	sbc	r24, r24
    1f1e:	99 0b       	sbc	r25, r25
    1f20:	0e 5f       	subi	r16, 0xFE	; 254
    1f22:	1f 4f       	sbci	r17, 0xFF	; 255
    1f24:	f3 2d       	mov	r31, r3
    1f26:	ff 76       	andi	r31, 0x6F	; 111
    1f28:	3f 2e       	mov	r3, r31
    1f2a:	97 ff       	sbrs	r25, 7
    1f2c:	09 c0       	rjmp	.+18     	; 0x1f40 <vfprintf+0x212>
    1f2e:	90 95       	com	r25
    1f30:	80 95       	com	r24
    1f32:	70 95       	com	r23
    1f34:	61 95       	neg	r22
    1f36:	7f 4f       	sbci	r23, 0xFF	; 255
    1f38:	8f 4f       	sbci	r24, 0xFF	; 255
    1f3a:	9f 4f       	sbci	r25, 0xFF	; 255
    1f3c:	f0 68       	ori	r31, 0x80	; 128
    1f3e:	3f 2e       	mov	r3, r31
    1f40:	2a e0       	ldi	r18, 0x0A	; 10
    1f42:	30 e0       	ldi	r19, 0x00	; 0
    1f44:	a3 01       	movw	r20, r6
    1f46:	0e 94 ca 10 	call	0x2194	; 0x2194 <__ultoa_invert>
    1f4a:	88 2e       	mov	r8, r24
    1f4c:	86 18       	sub	r8, r6
    1f4e:	45 c0       	rjmp	.+138    	; 0x1fda <vfprintf+0x2ac>
    1f50:	85 37       	cpi	r24, 0x75	; 117
    1f52:	31 f4       	brne	.+12     	; 0x1f60 <vfprintf+0x232>
    1f54:	23 2d       	mov	r18, r3
    1f56:	2f 7e       	andi	r18, 0xEF	; 239
    1f58:	b2 2e       	mov	r11, r18
    1f5a:	2a e0       	ldi	r18, 0x0A	; 10
    1f5c:	30 e0       	ldi	r19, 0x00	; 0
    1f5e:	25 c0       	rjmp	.+74     	; 0x1faa <vfprintf+0x27c>
    1f60:	93 2d       	mov	r25, r3
    1f62:	99 7f       	andi	r25, 0xF9	; 249
    1f64:	b9 2e       	mov	r11, r25
    1f66:	8f 36       	cpi	r24, 0x6F	; 111
    1f68:	c1 f0       	breq	.+48     	; 0x1f9a <vfprintf+0x26c>
    1f6a:	18 f4       	brcc	.+6      	; 0x1f72 <vfprintf+0x244>
    1f6c:	88 35       	cpi	r24, 0x58	; 88
    1f6e:	79 f0       	breq	.+30     	; 0x1f8e <vfprintf+0x260>
    1f70:	b5 c0       	rjmp	.+362    	; 0x20dc <vfprintf+0x3ae>
    1f72:	80 37       	cpi	r24, 0x70	; 112
    1f74:	19 f0       	breq	.+6      	; 0x1f7c <vfprintf+0x24e>
    1f76:	88 37       	cpi	r24, 0x78	; 120
    1f78:	21 f0       	breq	.+8      	; 0x1f82 <vfprintf+0x254>
    1f7a:	b0 c0       	rjmp	.+352    	; 0x20dc <vfprintf+0x3ae>
    1f7c:	e9 2f       	mov	r30, r25
    1f7e:	e0 61       	ori	r30, 0x10	; 16
    1f80:	be 2e       	mov	r11, r30
    1f82:	b4 fe       	sbrs	r11, 4
    1f84:	0d c0       	rjmp	.+26     	; 0x1fa0 <vfprintf+0x272>
    1f86:	fb 2d       	mov	r31, r11
    1f88:	f4 60       	ori	r31, 0x04	; 4
    1f8a:	bf 2e       	mov	r11, r31
    1f8c:	09 c0       	rjmp	.+18     	; 0x1fa0 <vfprintf+0x272>
    1f8e:	34 fe       	sbrs	r3, 4
    1f90:	0a c0       	rjmp	.+20     	; 0x1fa6 <vfprintf+0x278>
    1f92:	29 2f       	mov	r18, r25
    1f94:	26 60       	ori	r18, 0x06	; 6
    1f96:	b2 2e       	mov	r11, r18
    1f98:	06 c0       	rjmp	.+12     	; 0x1fa6 <vfprintf+0x278>
    1f9a:	28 e0       	ldi	r18, 0x08	; 8
    1f9c:	30 e0       	ldi	r19, 0x00	; 0
    1f9e:	05 c0       	rjmp	.+10     	; 0x1faa <vfprintf+0x27c>
    1fa0:	20 e1       	ldi	r18, 0x10	; 16
    1fa2:	30 e0       	ldi	r19, 0x00	; 0
    1fa4:	02 c0       	rjmp	.+4      	; 0x1faa <vfprintf+0x27c>
    1fa6:	20 e1       	ldi	r18, 0x10	; 16
    1fa8:	32 e0       	ldi	r19, 0x02	; 2
    1faa:	f8 01       	movw	r30, r16
    1fac:	b7 fe       	sbrs	r11, 7
    1fae:	07 c0       	rjmp	.+14     	; 0x1fbe <vfprintf+0x290>
    1fb0:	60 81       	ld	r22, Z
    1fb2:	71 81       	ldd	r23, Z+1	; 0x01
    1fb4:	82 81       	ldd	r24, Z+2	; 0x02
    1fb6:	93 81       	ldd	r25, Z+3	; 0x03
    1fb8:	0c 5f       	subi	r16, 0xFC	; 252
    1fba:	1f 4f       	sbci	r17, 0xFF	; 255
    1fbc:	06 c0       	rjmp	.+12     	; 0x1fca <vfprintf+0x29c>
    1fbe:	60 81       	ld	r22, Z
    1fc0:	71 81       	ldd	r23, Z+1	; 0x01
    1fc2:	80 e0       	ldi	r24, 0x00	; 0
    1fc4:	90 e0       	ldi	r25, 0x00	; 0
    1fc6:	0e 5f       	subi	r16, 0xFE	; 254
    1fc8:	1f 4f       	sbci	r17, 0xFF	; 255
    1fca:	a3 01       	movw	r20, r6
    1fcc:	0e 94 ca 10 	call	0x2194	; 0x2194 <__ultoa_invert>
    1fd0:	88 2e       	mov	r8, r24
    1fd2:	86 18       	sub	r8, r6
    1fd4:	fb 2d       	mov	r31, r11
    1fd6:	ff 77       	andi	r31, 0x7F	; 127
    1fd8:	3f 2e       	mov	r3, r31
    1fda:	36 fe       	sbrs	r3, 6
    1fdc:	0d c0       	rjmp	.+26     	; 0x1ff8 <vfprintf+0x2ca>
    1fde:	23 2d       	mov	r18, r3
    1fe0:	2e 7f       	andi	r18, 0xFE	; 254
    1fe2:	a2 2e       	mov	r10, r18
    1fe4:	89 14       	cp	r8, r9
    1fe6:	58 f4       	brcc	.+22     	; 0x1ffe <vfprintf+0x2d0>
    1fe8:	34 fe       	sbrs	r3, 4
    1fea:	0b c0       	rjmp	.+22     	; 0x2002 <vfprintf+0x2d4>
    1fec:	32 fc       	sbrc	r3, 2
    1fee:	09 c0       	rjmp	.+18     	; 0x2002 <vfprintf+0x2d4>
    1ff0:	83 2d       	mov	r24, r3
    1ff2:	8e 7e       	andi	r24, 0xEE	; 238
    1ff4:	a8 2e       	mov	r10, r24
    1ff6:	05 c0       	rjmp	.+10     	; 0x2002 <vfprintf+0x2d4>
    1ff8:	b8 2c       	mov	r11, r8
    1ffa:	a3 2c       	mov	r10, r3
    1ffc:	03 c0       	rjmp	.+6      	; 0x2004 <vfprintf+0x2d6>
    1ffe:	b8 2c       	mov	r11, r8
    2000:	01 c0       	rjmp	.+2      	; 0x2004 <vfprintf+0x2d6>
    2002:	b9 2c       	mov	r11, r9
    2004:	a4 fe       	sbrs	r10, 4
    2006:	0f c0       	rjmp	.+30     	; 0x2026 <vfprintf+0x2f8>
    2008:	fe 01       	movw	r30, r28
    200a:	e8 0d       	add	r30, r8
    200c:	f1 1d       	adc	r31, r1
    200e:	80 81       	ld	r24, Z
    2010:	80 33       	cpi	r24, 0x30	; 48
    2012:	21 f4       	brne	.+8      	; 0x201c <vfprintf+0x2ee>
    2014:	9a 2d       	mov	r25, r10
    2016:	99 7e       	andi	r25, 0xE9	; 233
    2018:	a9 2e       	mov	r10, r25
    201a:	09 c0       	rjmp	.+18     	; 0x202e <vfprintf+0x300>
    201c:	a2 fe       	sbrs	r10, 2
    201e:	06 c0       	rjmp	.+12     	; 0x202c <vfprintf+0x2fe>
    2020:	b3 94       	inc	r11
    2022:	b3 94       	inc	r11
    2024:	04 c0       	rjmp	.+8      	; 0x202e <vfprintf+0x300>
    2026:	8a 2d       	mov	r24, r10
    2028:	86 78       	andi	r24, 0x86	; 134
    202a:	09 f0       	breq	.+2      	; 0x202e <vfprintf+0x300>
    202c:	b3 94       	inc	r11
    202e:	a3 fc       	sbrc	r10, 3
    2030:	11 c0       	rjmp	.+34     	; 0x2054 <vfprintf+0x326>
    2032:	a0 fe       	sbrs	r10, 0
    2034:	06 c0       	rjmp	.+12     	; 0x2042 <vfprintf+0x314>
    2036:	b2 14       	cp	r11, r2
    2038:	88 f4       	brcc	.+34     	; 0x205c <vfprintf+0x32e>
    203a:	28 0c       	add	r2, r8
    203c:	92 2c       	mov	r9, r2
    203e:	9b 18       	sub	r9, r11
    2040:	0e c0       	rjmp	.+28     	; 0x205e <vfprintf+0x330>
    2042:	b2 14       	cp	r11, r2
    2044:	60 f4       	brcc	.+24     	; 0x205e <vfprintf+0x330>
    2046:	b6 01       	movw	r22, r12
    2048:	80 e2       	ldi	r24, 0x20	; 32
    204a:	90 e0       	ldi	r25, 0x00	; 0
    204c:	0e 94 8e 10 	call	0x211c	; 0x211c <fputc>
    2050:	b3 94       	inc	r11
    2052:	f7 cf       	rjmp	.-18     	; 0x2042 <vfprintf+0x314>
    2054:	b2 14       	cp	r11, r2
    2056:	18 f4       	brcc	.+6      	; 0x205e <vfprintf+0x330>
    2058:	2b 18       	sub	r2, r11
    205a:	02 c0       	rjmp	.+4      	; 0x2060 <vfprintf+0x332>
    205c:	98 2c       	mov	r9, r8
    205e:	21 2c       	mov	r2, r1
    2060:	a4 fe       	sbrs	r10, 4
    2062:	10 c0       	rjmp	.+32     	; 0x2084 <vfprintf+0x356>
    2064:	b6 01       	movw	r22, r12
    2066:	80 e3       	ldi	r24, 0x30	; 48
    2068:	90 e0       	ldi	r25, 0x00	; 0
    206a:	0e 94 8e 10 	call	0x211c	; 0x211c <fputc>
    206e:	a2 fe       	sbrs	r10, 2
    2070:	17 c0       	rjmp	.+46     	; 0x20a0 <vfprintf+0x372>
    2072:	a1 fc       	sbrc	r10, 1
    2074:	03 c0       	rjmp	.+6      	; 0x207c <vfprintf+0x34e>
    2076:	88 e7       	ldi	r24, 0x78	; 120
    2078:	90 e0       	ldi	r25, 0x00	; 0
    207a:	02 c0       	rjmp	.+4      	; 0x2080 <vfprintf+0x352>
    207c:	88 e5       	ldi	r24, 0x58	; 88
    207e:	90 e0       	ldi	r25, 0x00	; 0
    2080:	b6 01       	movw	r22, r12
    2082:	0c c0       	rjmp	.+24     	; 0x209c <vfprintf+0x36e>
    2084:	8a 2d       	mov	r24, r10
    2086:	86 78       	andi	r24, 0x86	; 134
    2088:	59 f0       	breq	.+22     	; 0x20a0 <vfprintf+0x372>
    208a:	a1 fe       	sbrs	r10, 1
    208c:	02 c0       	rjmp	.+4      	; 0x2092 <vfprintf+0x364>
    208e:	8b e2       	ldi	r24, 0x2B	; 43
    2090:	01 c0       	rjmp	.+2      	; 0x2094 <vfprintf+0x366>
    2092:	80 e2       	ldi	r24, 0x20	; 32
    2094:	a7 fc       	sbrc	r10, 7
    2096:	8d e2       	ldi	r24, 0x2D	; 45
    2098:	b6 01       	movw	r22, r12
    209a:	90 e0       	ldi	r25, 0x00	; 0
    209c:	0e 94 8e 10 	call	0x211c	; 0x211c <fputc>
    20a0:	89 14       	cp	r8, r9
    20a2:	38 f4       	brcc	.+14     	; 0x20b2 <vfprintf+0x384>
    20a4:	b6 01       	movw	r22, r12
    20a6:	80 e3       	ldi	r24, 0x30	; 48
    20a8:	90 e0       	ldi	r25, 0x00	; 0
    20aa:	0e 94 8e 10 	call	0x211c	; 0x211c <fputc>
    20ae:	9a 94       	dec	r9
    20b0:	f7 cf       	rjmp	.-18     	; 0x20a0 <vfprintf+0x372>
    20b2:	8a 94       	dec	r8
    20b4:	f3 01       	movw	r30, r6
    20b6:	e8 0d       	add	r30, r8
    20b8:	f1 1d       	adc	r31, r1
    20ba:	80 81       	ld	r24, Z
    20bc:	b6 01       	movw	r22, r12
    20be:	90 e0       	ldi	r25, 0x00	; 0
    20c0:	0e 94 8e 10 	call	0x211c	; 0x211c <fputc>
    20c4:	81 10       	cpse	r8, r1
    20c6:	f5 cf       	rjmp	.-22     	; 0x20b2 <vfprintf+0x384>
    20c8:	22 20       	and	r2, r2
    20ca:	09 f4       	brne	.+2      	; 0x20ce <vfprintf+0x3a0>
    20cc:	42 ce       	rjmp	.-892    	; 0x1d52 <vfprintf+0x24>
    20ce:	b6 01       	movw	r22, r12
    20d0:	80 e2       	ldi	r24, 0x20	; 32
    20d2:	90 e0       	ldi	r25, 0x00	; 0
    20d4:	0e 94 8e 10 	call	0x211c	; 0x211c <fputc>
    20d8:	2a 94       	dec	r2
    20da:	f6 cf       	rjmp	.-20     	; 0x20c8 <vfprintf+0x39a>
    20dc:	f6 01       	movw	r30, r12
    20de:	86 81       	ldd	r24, Z+6	; 0x06
    20e0:	97 81       	ldd	r25, Z+7	; 0x07
    20e2:	02 c0       	rjmp	.+4      	; 0x20e8 <vfprintf+0x3ba>
    20e4:	8f ef       	ldi	r24, 0xFF	; 255
    20e6:	9f ef       	ldi	r25, 0xFF	; 255
    20e8:	2b 96       	adiw	r28, 0x0b	; 11
    20ea:	e2 e1       	ldi	r30, 0x12	; 18
    20ec:	0c 94 44 11 	jmp	0x2288	; 0x2288 <__epilogue_restores__>

000020f0 <strnlen_P>:
    20f0:	fc 01       	movw	r30, r24
    20f2:	05 90       	lpm	r0, Z+
    20f4:	61 50       	subi	r22, 0x01	; 1
    20f6:	70 40       	sbci	r23, 0x00	; 0
    20f8:	01 10       	cpse	r0, r1
    20fa:	d8 f7       	brcc	.-10     	; 0x20f2 <strnlen_P+0x2>
    20fc:	80 95       	com	r24
    20fe:	90 95       	com	r25
    2100:	8e 0f       	add	r24, r30
    2102:	9f 1f       	adc	r25, r31
    2104:	08 95       	ret

00002106 <strnlen>:
    2106:	fc 01       	movw	r30, r24
    2108:	61 50       	subi	r22, 0x01	; 1
    210a:	70 40       	sbci	r23, 0x00	; 0
    210c:	01 90       	ld	r0, Z+
    210e:	01 10       	cpse	r0, r1
    2110:	d8 f7       	brcc	.-10     	; 0x2108 <strnlen+0x2>
    2112:	80 95       	com	r24
    2114:	90 95       	com	r25
    2116:	8e 0f       	add	r24, r30
    2118:	9f 1f       	adc	r25, r31
    211a:	08 95       	ret

0000211c <fputc>:
    211c:	0f 93       	push	r16
    211e:	1f 93       	push	r17
    2120:	cf 93       	push	r28
    2122:	df 93       	push	r29
    2124:	fb 01       	movw	r30, r22
    2126:	23 81       	ldd	r18, Z+3	; 0x03
    2128:	21 fd       	sbrc	r18, 1
    212a:	03 c0       	rjmp	.+6      	; 0x2132 <fputc+0x16>
    212c:	8f ef       	ldi	r24, 0xFF	; 255
    212e:	9f ef       	ldi	r25, 0xFF	; 255
    2130:	2c c0       	rjmp	.+88     	; 0x218a <fputc+0x6e>
    2132:	22 ff       	sbrs	r18, 2
    2134:	16 c0       	rjmp	.+44     	; 0x2162 <fputc+0x46>
    2136:	46 81       	ldd	r20, Z+6	; 0x06
    2138:	57 81       	ldd	r21, Z+7	; 0x07
    213a:	24 81       	ldd	r18, Z+4	; 0x04
    213c:	35 81       	ldd	r19, Z+5	; 0x05
    213e:	42 17       	cp	r20, r18
    2140:	53 07       	cpc	r21, r19
    2142:	44 f4       	brge	.+16     	; 0x2154 <fputc+0x38>
    2144:	a0 81       	ld	r26, Z
    2146:	b1 81       	ldd	r27, Z+1	; 0x01
    2148:	9d 01       	movw	r18, r26
    214a:	2f 5f       	subi	r18, 0xFF	; 255
    214c:	3f 4f       	sbci	r19, 0xFF	; 255
    214e:	31 83       	std	Z+1, r19	; 0x01
    2150:	20 83       	st	Z, r18
    2152:	8c 93       	st	X, r24
    2154:	26 81       	ldd	r18, Z+6	; 0x06
    2156:	37 81       	ldd	r19, Z+7	; 0x07
    2158:	2f 5f       	subi	r18, 0xFF	; 255
    215a:	3f 4f       	sbci	r19, 0xFF	; 255
    215c:	37 83       	std	Z+7, r19	; 0x07
    215e:	26 83       	std	Z+6, r18	; 0x06
    2160:	14 c0       	rjmp	.+40     	; 0x218a <fputc+0x6e>
    2162:	8b 01       	movw	r16, r22
    2164:	ec 01       	movw	r28, r24
    2166:	fb 01       	movw	r30, r22
    2168:	00 84       	ldd	r0, Z+8	; 0x08
    216a:	f1 85       	ldd	r31, Z+9	; 0x09
    216c:	e0 2d       	mov	r30, r0
    216e:	09 95       	icall
    2170:	89 2b       	or	r24, r25
    2172:	e1 f6       	brne	.-72     	; 0x212c <fputc+0x10>
    2174:	d8 01       	movw	r26, r16
    2176:	16 96       	adiw	r26, 0x06	; 6
    2178:	8d 91       	ld	r24, X+
    217a:	9c 91       	ld	r25, X
    217c:	17 97       	sbiw	r26, 0x07	; 7
    217e:	01 96       	adiw	r24, 0x01	; 1
    2180:	17 96       	adiw	r26, 0x07	; 7
    2182:	9c 93       	st	X, r25
    2184:	8e 93       	st	-X, r24
    2186:	16 97       	sbiw	r26, 0x06	; 6
    2188:	ce 01       	movw	r24, r28
    218a:	df 91       	pop	r29
    218c:	cf 91       	pop	r28
    218e:	1f 91       	pop	r17
    2190:	0f 91       	pop	r16
    2192:	08 95       	ret

00002194 <__ultoa_invert>:
    2194:	fa 01       	movw	r30, r20
    2196:	aa 27       	eor	r26, r26
    2198:	28 30       	cpi	r18, 0x08	; 8
    219a:	51 f1       	breq	.+84     	; 0x21f0 <__ultoa_invert+0x5c>
    219c:	20 31       	cpi	r18, 0x10	; 16
    219e:	81 f1       	breq	.+96     	; 0x2200 <__ultoa_invert+0x6c>
    21a0:	e8 94       	clt
    21a2:	6f 93       	push	r22
    21a4:	6e 7f       	andi	r22, 0xFE	; 254
    21a6:	6e 5f       	subi	r22, 0xFE	; 254
    21a8:	7f 4f       	sbci	r23, 0xFF	; 255
    21aa:	8f 4f       	sbci	r24, 0xFF	; 255
    21ac:	9f 4f       	sbci	r25, 0xFF	; 255
    21ae:	af 4f       	sbci	r26, 0xFF	; 255
    21b0:	b1 e0       	ldi	r27, 0x01	; 1
    21b2:	3e d0       	rcall	.+124    	; 0x2230 <__ultoa_invert+0x9c>
    21b4:	b4 e0       	ldi	r27, 0x04	; 4
    21b6:	3c d0       	rcall	.+120    	; 0x2230 <__ultoa_invert+0x9c>
    21b8:	67 0f       	add	r22, r23
    21ba:	78 1f       	adc	r23, r24
    21bc:	89 1f       	adc	r24, r25
    21be:	9a 1f       	adc	r25, r26
    21c0:	a1 1d       	adc	r26, r1
    21c2:	68 0f       	add	r22, r24
    21c4:	79 1f       	adc	r23, r25
    21c6:	8a 1f       	adc	r24, r26
    21c8:	91 1d       	adc	r25, r1
    21ca:	a1 1d       	adc	r26, r1
    21cc:	6a 0f       	add	r22, r26
    21ce:	71 1d       	adc	r23, r1
    21d0:	81 1d       	adc	r24, r1
    21d2:	91 1d       	adc	r25, r1
    21d4:	a1 1d       	adc	r26, r1
    21d6:	20 d0       	rcall	.+64     	; 0x2218 <__ultoa_invert+0x84>
    21d8:	09 f4       	brne	.+2      	; 0x21dc <__ultoa_invert+0x48>
    21da:	68 94       	set
    21dc:	3f 91       	pop	r19
    21de:	2a e0       	ldi	r18, 0x0A	; 10
    21e0:	26 9f       	mul	r18, r22
    21e2:	11 24       	eor	r1, r1
    21e4:	30 19       	sub	r19, r0
    21e6:	30 5d       	subi	r19, 0xD0	; 208
    21e8:	31 93       	st	Z+, r19
    21ea:	de f6       	brtc	.-74     	; 0x21a2 <__ultoa_invert+0xe>
    21ec:	cf 01       	movw	r24, r30
    21ee:	08 95       	ret
    21f0:	46 2f       	mov	r20, r22
    21f2:	47 70       	andi	r20, 0x07	; 7
    21f4:	40 5d       	subi	r20, 0xD0	; 208
    21f6:	41 93       	st	Z+, r20
    21f8:	b3 e0       	ldi	r27, 0x03	; 3
    21fa:	0f d0       	rcall	.+30     	; 0x221a <__ultoa_invert+0x86>
    21fc:	c9 f7       	brne	.-14     	; 0x21f0 <__ultoa_invert+0x5c>
    21fe:	f6 cf       	rjmp	.-20     	; 0x21ec <__ultoa_invert+0x58>
    2200:	46 2f       	mov	r20, r22
    2202:	4f 70       	andi	r20, 0x0F	; 15
    2204:	40 5d       	subi	r20, 0xD0	; 208
    2206:	4a 33       	cpi	r20, 0x3A	; 58
    2208:	18 f0       	brcs	.+6      	; 0x2210 <__ultoa_invert+0x7c>
    220a:	49 5d       	subi	r20, 0xD9	; 217
    220c:	31 fd       	sbrc	r19, 1
    220e:	40 52       	subi	r20, 0x20	; 32
    2210:	41 93       	st	Z+, r20
    2212:	02 d0       	rcall	.+4      	; 0x2218 <__ultoa_invert+0x84>
    2214:	a9 f7       	brne	.-22     	; 0x2200 <__ultoa_invert+0x6c>
    2216:	ea cf       	rjmp	.-44     	; 0x21ec <__ultoa_invert+0x58>
    2218:	b4 e0       	ldi	r27, 0x04	; 4
    221a:	a6 95       	lsr	r26
    221c:	97 95       	ror	r25
    221e:	87 95       	ror	r24
    2220:	77 95       	ror	r23
    2222:	67 95       	ror	r22
    2224:	ba 95       	dec	r27
    2226:	c9 f7       	brne	.-14     	; 0x221a <__ultoa_invert+0x86>
    2228:	00 97       	sbiw	r24, 0x00	; 0
    222a:	61 05       	cpc	r22, r1
    222c:	71 05       	cpc	r23, r1
    222e:	08 95       	ret
    2230:	9b 01       	movw	r18, r22
    2232:	ac 01       	movw	r20, r24
    2234:	0a 2e       	mov	r0, r26
    2236:	06 94       	lsr	r0
    2238:	57 95       	ror	r21
    223a:	47 95       	ror	r20
    223c:	37 95       	ror	r19
    223e:	27 95       	ror	r18
    2240:	ba 95       	dec	r27
    2242:	c9 f7       	brne	.-14     	; 0x2236 <__ultoa_invert+0xa2>
    2244:	62 0f       	add	r22, r18
    2246:	73 1f       	adc	r23, r19
    2248:	84 1f       	adc	r24, r20
    224a:	95 1f       	adc	r25, r21
    224c:	a0 1d       	adc	r26, r0
    224e:	08 95       	ret

00002250 <__prologue_saves__>:
    2250:	2f 92       	push	r2
    2252:	3f 92       	push	r3
    2254:	4f 92       	push	r4
    2256:	5f 92       	push	r5
    2258:	6f 92       	push	r6
    225a:	7f 92       	push	r7
    225c:	8f 92       	push	r8
    225e:	9f 92       	push	r9
    2260:	af 92       	push	r10
    2262:	bf 92       	push	r11
    2264:	cf 92       	push	r12
    2266:	df 92       	push	r13
    2268:	ef 92       	push	r14
    226a:	ff 92       	push	r15
    226c:	0f 93       	push	r16
    226e:	1f 93       	push	r17
    2270:	cf 93       	push	r28
    2272:	df 93       	push	r29
    2274:	cd b7       	in	r28, 0x3d	; 61
    2276:	de b7       	in	r29, 0x3e	; 62
    2278:	ca 1b       	sub	r28, r26
    227a:	db 0b       	sbc	r29, r27
    227c:	0f b6       	in	r0, 0x3f	; 63
    227e:	f8 94       	cli
    2280:	de bf       	out	0x3e, r29	; 62
    2282:	0f be       	out	0x3f, r0	; 63
    2284:	cd bf       	out	0x3d, r28	; 61
    2286:	09 94       	ijmp

00002288 <__epilogue_restores__>:
    2288:	2a 88       	ldd	r2, Y+18	; 0x12
    228a:	39 88       	ldd	r3, Y+17	; 0x11
    228c:	48 88       	ldd	r4, Y+16	; 0x10
    228e:	5f 84       	ldd	r5, Y+15	; 0x0f
    2290:	6e 84       	ldd	r6, Y+14	; 0x0e
    2292:	7d 84       	ldd	r7, Y+13	; 0x0d
    2294:	8c 84       	ldd	r8, Y+12	; 0x0c
    2296:	9b 84       	ldd	r9, Y+11	; 0x0b
    2298:	aa 84       	ldd	r10, Y+10	; 0x0a
    229a:	b9 84       	ldd	r11, Y+9	; 0x09
    229c:	c8 84       	ldd	r12, Y+8	; 0x08
    229e:	df 80       	ldd	r13, Y+7	; 0x07
    22a0:	ee 80       	ldd	r14, Y+6	; 0x06
    22a2:	fd 80       	ldd	r15, Y+5	; 0x05
    22a4:	0c 81       	ldd	r16, Y+4	; 0x04
    22a6:	1b 81       	ldd	r17, Y+3	; 0x03
    22a8:	aa 81       	ldd	r26, Y+2	; 0x02
    22aa:	b9 81       	ldd	r27, Y+1	; 0x01
    22ac:	ce 0f       	add	r28, r30
    22ae:	d1 1d       	adc	r29, r1
    22b0:	0f b6       	in	r0, 0x3f	; 63
    22b2:	f8 94       	cli
    22b4:	de bf       	out	0x3e, r29	; 62
    22b6:	0f be       	out	0x3f, r0	; 63
    22b8:	cd bf       	out	0x3d, r28	; 61
    22ba:	ed 01       	movw	r28, r26
    22bc:	08 95       	ret

000022be <_exit>:
    22be:	f8 94       	cli

000022c0 <__stop_program>:
    22c0:	ff cf       	rjmp	.-2      	; 0x22c0 <__stop_program>
